###############################################################################
#                                                                             #
# IAR C/C++ Compiler V8.10.1.10194/W32 for 8051         07/Oct/2014  01:29:42 #
# Copyright 2004-2011 IAR Systems AB.                                         #
#                                                                             #
#    Core               =  plain                                              #
#    Code model         =  banked                                             #
#    Data model         =  large                                              #
#    Calling convention =  xdata reentrant                                    #
#    Constant location  =  data_rom                                           #
#    Dptr setup         =  1,16                                               #
#    Source file        =  D:\ZStack-CC2530-2.5.1a\Projects\zstack\Samples\En #
#                          dPoint\Source\SampleApp.c                          #
#    Command line       =  -f D:\ZStack-CC2530-2.5.1a\Projects\zstack\Samples #
#                          \EndPoint\CC2530DB\..\..\..\Tools\CC2530DB\f8wEnde #
#                          v.cfg (-DCPU32MHZ -DROOT=__near_func               #
#                          -DMAC_CFG_TX_DATA_MAX=3 -DMAC_CFG_TX_MAX=6         #
#                          -DMAC_CFG_RX_MAX=3) -f D:\ZStack-CC2530-2.5.1a\Pro #
#                          jects\zstack\Samples\EndPoint\CC2530DB\..\..\..\To #
#                          ols\CC2530DB\f8wConfig.cfg (-DZIGBEEPRO            #
#                          -DSECURE=0 -DZG_SECURE_DYNAMIC=0 -DREFLECTOR       #
#                          -DDEFAULT_CHANLIST=0x00000800                      #
#                          -DZDAPP_CONFIG_PAN_ID=0xFFFF                       #
#                          -DNWK_START_DELAY=100 -DEXTENDED_JOINING_RANDOM_MA #
#                          SK=0x007F -DBEACON_REQUEST_DELAY=100               #
#                          -DBEACON_REQ_DELAY_MASK=0x00FF                     #
#                          -DLINK_STATUS_JITTER_MASK=0x007F                   #
#                          -DROUTE_EXPIRY_TIME=30 -DAPSC_ACK_WAIT_DURATION_PO #
#                          LLED=3000 -DNWK_INDIRECT_MSG_TIMEOUT=7             #
#                          -DMAX_RREQ_ENTRIES=8 -DAPSC_MAX_FRAME_RETRIES=3    #
#                          -DNWK_MAX_DATA_RETRIES=2                           #
#                          -DMAX_POLL_FAILURE_RETRIES=2 -DMAX_BCAST=9         #
#                          -DAPS_MAX_GROUPS=16 -DMAX_RTG_ENTRIES=40           #
#                          -DNWK_MAX_BINDING_ENTRIES=4                        #
#                          -DMAX_BINDING_CLUSTER_IDS=4 "-DDEFAULT_KEY={0x01,  #
#                          0x03, 0x05, 0x07, 0x09, 0x0B, 0x0D, 0x0F, 0x00,    #
#                          0x02, 0x04, 0x06, 0x08, 0x0A, 0x0C, 0x0D}"         #
#                          -DMAC_MAX_FRAME_SIZE=116                           #
#                          -DZDNWKMGR_MIN_TRANSMISSIONS=20 "-DCONST=const     #
#                          __code" -DGENERIC=__generic                        #
#                          -DRFD_RCVC_ALWAYS_ON=FALSE -DPOLL_RATE=1000        #
#                          -DQUEUED_POLL_RATE=100 -DRESPONSE_POLL_RATE=100)   #
#                          -DREJOIN_POLL_RATE=440 D:\ZStack-CC2530-2.5.1a\Pro #
#                          jects\zstack\Samples\EndPoint\Source\SampleApp.c   #
#                          -D xNWK_AUTO_POLL -D ZTOOL_P1 -D xMT_TASK -D       #
#                          xMT_SYS_FUNC -D xMT_ZDO_FUNC -D                    #
#                          xLCD_SUPPORTED=DEBUG -lC                           #
#                          D:\ZStack-CC2530-2.5.1a\Projects\zstack\Samples\En #
#                          dPoint\CC2530DB\EndDeviceEB\List\ -lA              #
#                          D:\ZStack-CC2530-2.5.1a\Projects\zstack\Samples\En #
#                          dPoint\CC2530DB\EndDeviceEB\List\ --diag_suppress  #
#                          Pe001,Pa010 -o D:\ZStack-CC2530-2.5.1a\Projects\zs #
#                          tack\Samples\EndPoint\CC2530DB\EndDeviceEB\Obj\    #
#                          -e --no_code_motion --debug --core=plain           #
#                          --dptr=16,1 --data_model=large                     #
#                          --code_model=banked --calling_convention=xdata_ree #
#                          ntrant --place_constants=data_rom                  #
#                          --nr_virtual_regs 16 -I D:\ZStack-CC2530-2.5.1a\Pr #
#                          ojects\zstack\Samples\EndPoint\CC2530DB\ -I        #
#                          D:\ZStack-CC2530-2.5.1a\Projects\zstack\Samples\En #
#                          dPoint\CC2530DB\..\Source\ -I                      #
#                          D:\ZStack-CC2530-2.5.1a\Projects\zstack\Samples\En #
#                          dPoint\CC2530DB\..\..\..\ZMain\TI2530DB\ -I        #
#                          D:\ZStack-CC2530-2.5.1a\Projects\zstack\Samples\En #
#                          dPoint\CC2530DB\..\..\..\..\..\Components\hal\incl #
#                          ude\ -I D:\ZStack-CC2530-2.5.1a\Projects\zstack\Sa #
#                          mples\EndPoint\CC2530DB\..\..\..\..\..\Components\ #
#                          hal\target\CC2530EB\ -I D:\ZStack-CC2530-2.5.1a\Pr #
#                          ojects\zstack\Samples\EndPoint\CC2530DB\..\..\..\. #
#                          .\..\Components\mac\include\ -I                    #
#                          D:\ZStack-CC2530-2.5.1a\Projects\zstack\Samples\En #
#                          dPoint\CC2530DB\..\..\..\..\..\Components\mac\high #
#                          _level\ -I D:\ZStack-CC2530-2.5.1a\Projects\zstack #
#                          \Samples\EndPoint\CC2530DB\..\..\..\..\..\Componen #
#                          ts\mac\low_level\srf04\ -I                         #
#                          D:\ZStack-CC2530-2.5.1a\Projects\zstack\Samples\En #
#                          dPoint\CC2530DB\..\..\..\..\..\Components\mac\low_ #
#                          level\srf04\single_chip\ -I                        #
#                          D:\ZStack-CC2530-2.5.1a\Projects\zstack\Samples\En #
#                          dPoint\CC2530DB\..\..\..\..\..\Components\mt\ -I   #
#                          D:\ZStack-CC2530-2.5.1a\Projects\zstack\Samples\En #
#                          dPoint\CC2530DB\..\..\..\..\..\Components\osal\inc #
#                          lude\ -I D:\ZStack-CC2530-2.5.1a\Projects\zstack\S #
#                          amples\EndPoint\CC2530DB\..\..\..\..\..\Components #
#                          \services\saddr\ -I D:\ZStack-CC2530-2.5.1a\Projec #
#                          ts\zstack\Samples\EndPoint\CC2530DB\..\..\..\..\.. #
#                          \Components\services\sdata\ -I                     #
#                          D:\ZStack-CC2530-2.5.1a\Projects\zstack\Samples\En #
#                          dPoint\CC2530DB\..\..\..\..\..\Components\stack\af #
#                          \ -I D:\ZStack-CC2530-2.5.1a\Projects\zstack\Sampl #
#                          es\EndPoint\CC2530DB\..\..\..\..\..\Components\sta #
#                          ck\nwk\ -I D:\ZStack-CC2530-2.5.1a\Projects\zstack #
#                          \Samples\EndPoint\CC2530DB\..\..\..\..\..\Componen #
#                          ts\stack\sapi\ -I D:\ZStack-CC2530-2.5.1a\Projects #
#                          \zstack\Samples\EndPoint\CC2530DB\..\..\..\..\..\C #
#                          omponents\stack\sec\ -I D:\ZStack-CC2530-2.5.1a\Pr #
#                          ojects\zstack\Samples\EndPoint\CC2530DB\..\..\..\. #
#                          .\..\Components\stack\sys\ -I                      #
#                          D:\ZStack-CC2530-2.5.1a\Projects\zstack\Samples\En #
#                          dPoint\CC2530DB\..\..\..\..\..\Components\stack\zd #
#                          o\ -I D:\ZStack-CC2530-2.5.1a\Projects\zstack\Samp #
#                          les\EndPoint\CC2530DB\..\..\..\..\..\Components\zm #
#                          ac\ -I D:\ZStack-CC2530-2.5.1a\Projects\zstack\Sam #
#                          ples\EndPoint\CC2530DB\..\..\..\..\..\Components\z #
#                          mac\f8w\ -Ohz --require_prototypes                 #
#    List file          =  D:\ZStack-CC2530-2.5.1a\Projects\zstack\Samples\En #
#                          dPoint\CC2530DB\EndDeviceEB\List\SampleApp.lst     #
#    Object file        =  D:\ZStack-CC2530-2.5.1a\Projects\zstack\Samples\En #
#                          dPoint\CC2530DB\EndDeviceEB\Obj\SampleApp.r51      #
#                                                                             #
#                                                                             #
###############################################################################

D:\ZStack-CC2530-2.5.1a\Projects\zstack\Samples\EndPoint\Source\SampleApp.c
      1          /**************************************************************************************************
      2            Filename:       SampleApp.c
      3            Revised:        $Date: 2009-03-18 15:56:27 -0700 (Wed, 18 Mar 2009) $
      4            Revision:       $Revision: 19453 $
      5          
      6            Description:    Sample Application (no Profile).
      7          
      8          
      9            Copyright 2007 Texas Instruments Incorporated. All rights reserved.
     10          
     11            IMPORTANT: Your use of this Software is limited to those specific rights
     12            granted under the terms of a software license agreement between the user
     13            who downloaded the software, his/her employer (which must be your employer)
     14            and Texas Instruments Incorporated (the "License").  You may not use this
     15            Software unless you agree to abide by the terms of the License. The License
     16            limits your use, and you acknowledge, that the Software may not be modified,
     17            copied or distributed unless embedded on a Texas Instruments microcontroller
     18            or used solely and exclusively in conjunction with a Texas Instruments radio
     19            frequency transceiver, which is integrated into your product.  Other than for
     20            the foregoing purpose, you may not use, reproduce, copy, prepare derivative
     21            works of, modify, distribute, perform, display or sell this Software and/or
     22            its documentation for any purpose.
     23          
     24            YOU FURTHER ACKNOWLEDGE AND AGREE THAT THE SOFTWARE AND DOCUMENTATION ARE
     25            PROVIDED “AS IS?WITHOUT WARRANTY OF ANY KIND, EITHER EXPRESS OR IMPLIED,
     26            INCLUDING WITHOUT LIMITATION, ANY WARRANTY OF MERCHANTABILITY, TITLE,
     27            NON-INFRINGEMENT AND FITNESS FOR A PARTICULAR PURPOSE. IN NO EVENT SHALL
     28            TEXAS INSTRUMENTS OR ITS LICENSORS BE LIABLE OR OBLIGATED UNDER CONTRACT,
     29            NEGLIGENCE, STRICT LIABILITY, CONTRIBUTION, BREACH OF WARRANTY, OR OTHER
     30            LEGAL EQUITABLE THEORY ANY DIRECT OR INDIRECT DAMAGES OR EXPENSES
     31            INCLUDING BUT NOT LIMITED TO ANY INCIDENTAL, SPECIAL, INDIRECT, PUNITIVE
     32            OR CONSEQUENTIAL DAMAGES, LOST PROFITS OR LOST DATA, COST OF PROCUREMENT
     33            OF SUBSTITUTE GOODS, TECHNOLOGY, SERVICES, OR ANY CLAIMS BY THIRD PARTIES
     34            (INCLUDING BUT NOT LIMITED TO ANY DEFENSE THEREOF), OR OTHER SIMILAR COSTS.
     35          
     36            Should you have any questions regarding your right to use this Software,
     37            contact Texas Instruments Incorporated at www.TI.com.
     38          **************************************************************************************************/
     39          
     40          /*********************************************************************
     41            This application isn't intended to do anything useful, it is
     42            intended to be a simple example of an application's structure.
     43          
     44            This application sends it's messages either as broadcast or
     45            broadcast filtered group messages.  The other (more normal)
     46            message addressing is unicast.  Most of the other sample
     47            applications are written to support the unicast message model.
     48          
     49            Key control:
     50              SW1:  Sends a flash command to all devices in Group 1.
     51              SW2:  Adds/Removes (toggles) this device in and out
     52                    of Group 1.  This will enable and disable the
     53                    reception of the flash command.
     54          *********************************************************************/
     55          #define uchar unsigned char
     56          #define LED1 P1_0
     57          /*********************************************************************
     58           * INCLUDES
     59           */
     60          #include "OSAL.h"
     61          #include "ZGlobals.h"
     62          #include "AF.h"
     63          #include "aps_groups.h"
     64          #include "ZDApp.h"
     65          
     66          #include "SampleApp.h"
     67          #include "SampleAppHw.h"
     68          
     69          #include "OnBoard.h"

   \                                 In  segment SFR_AN, at 0x90
   \   union <unnamed> volatile __sfr _A_P1
   \                     _A_P1:
   \   000000                DS 1

   \                                 In  segment SFR_AN, at 0xf3
   \   unsigned char volatile __sfr P0SEL
   \                     P0SEL:
   \   000000                DS 1

   \                                 In  segment SFR_AN, at 0xf6
   \   unsigned char volatile __sfr P1INP
   \                     P1INP:
   \   000000                DS 1

   \                                 In  segment SFR_AN, at 0xfe
   \   unsigned char volatile __sfr P1DIR
   \                     P1DIR:
   \   000000                DS 1
     70          
     71          /* HAL */
     72          #include "hal_lcd.h"
     73          #include "hal_led.h"
     74          #include "hal_key.h"
     75          #include "MT_UART.h"
     76          #include "string.h"
     77          #include "ds18b20.h"
     78          
     79          /*********************************************************************
     80           * MACROS
     81           */
     82          
     83          /*********************************************************************
     84           * CONSTANTS
     85           */
     86          
     87          /*********************************************************************
     88           * TYPEDEFS
     89           */
     90          
     91          /*********************************************************************
     92           * GLOBAL VARIABLES
     93           */
     94          
     95          // This list should be filled with Application specific Cluster IDs.

   \                                 In  segment XDATA_ROM_C, align 1
     96          const cId_t SampleApp_ClusterList[SAMPLEAPP_MAX_CLUSTERS] =
   \                     SampleApp_ClusterList:
   \   000000   0100         DW 1
   \   000002   0200         DW 2
   \   000004   0300         DW 3
     97          {
     98            SAMPLEAPP_PERIODIC_CLUSTERID,
     99            SAMPLEAPP_FLASH_CLUSTERID,
    100            SAMPLEAPP_POINT_CLUSTERID
    101          };
    102          

   \                                 In  segment XDATA_ROM_C, align 1
    103          const SimpleDescriptionFormat_t SampleApp_SimpleDesc =
   \                     SampleApp_SimpleDesc:
   \   000000   14           DB 20
   \   000001   080F         DW 3848
   \   000003   0100         DW 1
   \   000005   00           DB 0
   \   000006   03           DB 3
   \   000007   ....         DW SampleApp_ClusterList
   \   000009   03           DB 3
   \   00000A   ....         DW SampleApp_ClusterList
    104          {
    105            SAMPLEAPP_ENDPOINT,              //  int Endpoint;
    106            SAMPLEAPP_PROFID,                //  uint16 AppProfId[2];
    107            SAMPLEAPP_DEVICEID,              //  uint16 AppDeviceId[2];
    108            SAMPLEAPP_DEVICE_VERSION,        //  int   AppDevVer:4;
    109            SAMPLEAPP_FLAGS,                 //  int   AppFlags:4;
    110            SAMPLEAPP_MAX_CLUSTERS,          //  uint8  AppNumInClusters;
    111            (cId_t *)SampleApp_ClusterList,  //  uint8 *pAppInClusterList;
    112            SAMPLEAPP_MAX_CLUSTERS,          //  uint8  AppNumInClusters;
    113            (cId_t *)SampleApp_ClusterList   //  uint8 *pAppInClusterList;
    114          };
    115          
    116          // This is the Endpoint/Interface description.  It is defined here, but
    117          // filled-in in SampleApp_Init().  Another way to go would be to fill
    118          // in the structure here and make it a "const" (in code space).  The
    119          // way it's defined in this sample app it is define in RAM.

   \                                 In  segment XDATA_Z, align 1, keep-with-next
    120          endPointDesc_t SampleApp_epDesc;
   \                     SampleApp_epDesc:
   \   000000                DS 6
   \   000006                REQUIRE __INIT_XDATA_Z
    121          
    122          /*********************************************************************
    123           * EXTERNAL VARIABLES
    124           */
    125          
    126          /*********************************************************************
    127           * EXTERNAL FUNCTIONS
    128           */
    129          
    130          /*********************************************************************
    131           * LOCAL VARIABLES
    132           */

   \                                 In  segment XDATA_Z, align 1, keep-with-next
    133          uint8 SampleApp_TaskID;   // Task ID for internal task/event processing
   \                     SampleApp_TaskID:
   \   000000                DS 1
   \   000001                REQUIRE __INIT_XDATA_Z
    134                                    // This variable will be received when
    135                                    // SampleApp_Init() is called.

   \                                 In  segment XDATA_Z, align 1, keep-with-next
    136          devStates_t SampleApp_NwkState;
   \                     SampleApp_NwkState:
   \   000000                DS 1
   \   000001                REQUIRE __INIT_XDATA_Z
    137          

   \                                 In  segment XDATA_Z, align 1, keep-with-next
    138          uint8 SampleApp_TransID;  // This is the unique message ID (counter)
   \                     SampleApp_TransID:
   \   000000                DS 1
   \   000001                REQUIRE __INIT_XDATA_Z
    139          

   \                                 In  segment XDATA_Z, align 1, keep-with-next
    140          afAddrType_t SampleApp_Periodic_DstAddr;
   \                     SampleApp_Periodic_DstAddr:
   \   000000                DS 12
   \   00000C                REQUIRE __INIT_XDATA_Z

   \                                 In  segment XDATA_Z, align 1, keep-with-next
    141          afAddrType_t SampleApp_Flash_DstAddr;
   \                     SampleApp_Flash_DstAddr:
   \   000000                DS 12
   \   00000C                REQUIRE __INIT_XDATA_Z
    142          

   \                                 In  segment XDATA_Z, align 1, keep-with-next
    143          afAddrType_t SampleApp_Point_DstAddr;
   \                     SampleApp_Point_DstAddr:
   \   000000                DS 12
   \   00000C                REQUIRE __INIT_XDATA_Z
    144          

   \                                 In  segment XDATA_Z, align 1, keep-with-next
    145          aps_Group_t SampleApp_Group;
   \                     SampleApp_Group:
   \   000000                DS 18
   \   000012                REQUIRE __INIT_XDATA_Z
    146          

   \                                 In  segment XDATA_Z, align 1, keep-with-next
    147          uint8 SampleAppPeriodicCounter = 0;
   \                     SampleAppPeriodicCounter:
   \   000000                DS 1
   \   000001                REQUIRE __INIT_XDATA_Z

   \                                 In  segment XDATA_Z, align 1, keep-with-next
    148          uint8 SampleAppFlashCounter = 0;
   \                     SampleAppFlashCounter:
   \   000000                DS 1
   \   000001                REQUIRE __INIT_XDATA_Z
    149          
    150          /*********************************************************************
    151           * LOCAL FUNCTIONS
    152           */
    153          void SampleApp_HandleKeys( uint8 shift, uint8 keys );
    154          void SampleApp_MessageMSGCB( afIncomingMSGPacket_t *pckt );
    155          void SampleApp_SendPeriodicMessage( void );
    156          void SampleApp_SendFlashMessage( uint16 flashTime );
    157          void SampleApp_SendPointMessage(void);
    158          
    159          /*********************************************************************
    160           * NETWORK LAYER CALLBACKS
    161           */
    162          
    163          /*********************************************************************
    164           * PUBLIC FUNCTIONS
    165           */
    166          
    167          /*********************************************************************
    168           * @fn      SampleApp_Init
    169           *
    170           * @brief   Initialization function for the Generic App Task.
    171           *          This is called during initialization and should contain
    172           *          any application specific initialization (ie. hardware
    173           *          initialization/setup, table initialization, power up
    174           *          notificaiton ... ).
    175           *
    176           * @param   task_id - the ID assigned by OSAL.  This ID should be
    177           *                    used to send messages and set timers.
    178           *
    179           * @return  none
    180           */

   \                                 In  segment BANKED_CODE, align 1, keep-with-next
    181          void SampleApp_Init( uint8 task_id )
   \                     SampleApp_Init:
    182          {
   \   000000   74F5         MOV     A,#-0xb
   \   000002   12....       LCALL   ?BANKED_ENTER_XDATA
   \   000005                ; Saved register size: 11
   \   000005                ; Auto size: 0
   \   000005   E9           MOV     A,R1
   \   000006   FE           MOV     R6,A
    183            SampleApp_TaskID = task_id;
   \   000007   90....       MOV     DPTR,#SampleApp_TaskID
   \   00000A   F0           MOVX    @DPTR,A
    184            SampleApp_NwkState = DEV_INIT;
   \   00000B   90....       MOV     DPTR,#SampleApp_NwkState
   \   00000E   7401         MOV     A,#0x1
   \   000010   F0           MOVX    @DPTR,A
    185            SampleApp_TransID = 0;
   \   000011   90....       MOV     DPTR,#SampleApp_TransID
   \   000014   E4           CLR     A
   \   000015   F0           MOVX    @DPTR,A
    186            
    187            P1DIR |= 0x01;
   \   000016   43FE01       ORL     0xfe,#0x1
    188            P1INP |= 0x01;
   \   000019   43F601       ORL     0xf6,#0x1
    189            
    190            P0SEL &= 0xbf;
   \   00001C   53F3BF       ANL     0xf3,#0xbf
    191            
    192            MT_UartInit();
   \   00001F                ; Setup parameters for call to function MT_UartInit
   \   00001F   12....       LCALL   ??MT_UartInit?relay
    193            MT_UartRegisterTaskID(task_id);
   \   000022                ; Setup parameters for call to function MT_UartRegisterTaskID
   \   000022   EE           MOV     A,R6
   \   000023   F9           MOV     R1,A
   \   000024   12....       LCALL   ??MT_UartRegisterTaskID?relay
    194            HalUARTWrite(0, "Ep Init\n", sizeof("Ep Init\n")-1);
   \   000027                ; Setup parameters for call to function HalUARTWrite
   \   000027   7C08         MOV     R4,#0x8
   \   000029   7D00         MOV     R5,#0x0
   \   00002B   7A..         MOV     R2,#`?<Constant "Ep Init\\n">` & 0xff
   \   00002D   7B..         MOV     R3,#(`?<Constant "Ep Init\\n">` >> 8) & 0xff
   \   00002F   7900         MOV     R1,#0x0
   \   000031   12....       LCALL   ??HalUARTWrite?relay
    195          
    196            // Device hardware initialization can be added here or in main() (Zmain.c).
    197            // If the hardware is application specific - add it here.
    198            // If the hardware is other parts of the device add it in main().
    199          
    200           #if defined ( BUILD_ALL_DEVICES )
    201            // The "Demo" target is setup to have BUILD_ALL_DEVICES and HOLD_AUTO_START
    202            // We are looking at a jumper (defined in SampleAppHw.c) to be jumpered
    203            // together - if they are - we will start up a coordinator. Otherwise,
    204            // the device will start as a router.
    205            if ( readCoordinatorJumper() )
    206              zgDeviceLogicalType = ZG_DEVICETYPE_COORDINATOR;
    207            else
    208              zgDeviceLogicalType = ZG_DEVICETYPE_ROUTER;
    209          #endif // BUILD_ALL_DEVICES
    210          
    211          #if defined ( HOLD_AUTO_START )
    212            // HOLD_AUTO_START is a compile option that will surpress ZDApp
    213            //  from starting the device and wait for the application to
    214            //  start the device.
    215            ZDOInitDevice(0);
    216          #endif
    217          
    218            // Setup for the periodic message's destination address
    219            // Broadcast to everyone
    220            SampleApp_Periodic_DstAddr.addrMode = (afAddrMode_t)AddrBroadcast;
   \   000034   90....       MOV     DPTR,#SampleApp_Periodic_DstAddr + 8
   \   000037   740F         MOV     A,#0xf
   \   000039   F0           MOVX    @DPTR,A
    221            SampleApp_Periodic_DstAddr.endPoint = SAMPLEAPP_ENDPOINT;
   \   00003A   A3           INC     DPTR
   \   00003B   7414         MOV     A,#0x14
   \   00003D   F0           MOVX    @DPTR,A
    222            SampleApp_Periodic_DstAddr.addr.shortAddr = 0xFFFF;
   \   00003E   90....       MOV     DPTR,#SampleApp_Periodic_DstAddr
   \   000041   74FF         MOV     A,#-0x1
   \   000043   F0           MOVX    @DPTR,A
   \   000044   A3           INC     DPTR
   \   000045   F0           MOVX    @DPTR,A
    223          
    224            // Setup for the flash command's destination address - Group 1
    225            SampleApp_Flash_DstAddr.addrMode = (afAddrMode_t)afAddrGroup;
   \   000046   90....       MOV     DPTR,#SampleApp_Flash_DstAddr + 8
   \   000049   7401         MOV     A,#0x1
   \   00004B   F0           MOVX    @DPTR,A
    226            SampleApp_Flash_DstAddr.endPoint = SAMPLEAPP_ENDPOINT;
   \   00004C   A3           INC     DPTR
   \   00004D   7414         MOV     A,#0x14
   \   00004F   F0           MOVX    @DPTR,A
    227            SampleApp_Flash_DstAddr.addr.shortAddr = SAMPLEAPP_FLASH_GROUP;
   \   000050   90....       MOV     DPTR,#SampleApp_Flash_DstAddr
   \   000053   7401         MOV     A,#0x1
   \   000055   F0           MOVX    @DPTR,A
   \   000056   A3           INC     DPTR
   \   000057   E4           CLR     A
   \   000058   F0           MOVX    @DPTR,A
    228            
    229            SampleApp_Point_DstAddr.addrMode = (afAddrMode_t)afAddr16Bit;
   \   000059   90....       MOV     DPTR,#SampleApp_Point_DstAddr + 8
   \   00005C   7402         MOV     A,#0x2
   \   00005E   F0           MOVX    @DPTR,A
    230            SampleApp_Point_DstAddr.endPoint = SAMPLEAPP_ENDPOINT;
   \   00005F   A3           INC     DPTR
   \   000060   7414         MOV     A,#0x14
   \   000062   F0           MOVX    @DPTR,A
    231            SampleApp_Point_DstAddr.addr.shortAddr = 0x00;
   \   000063   90....       MOV     DPTR,#SampleApp_Point_DstAddr
   \   000066   E4           CLR     A
   \   000067   F0           MOVX    @DPTR,A
   \   000068   A3           INC     DPTR
   \   000069   F0           MOVX    @DPTR,A
    232          
    233            // Fill out the endpoint description.
    234            SampleApp_epDesc.endPoint = SAMPLEAPP_ENDPOINT;
   \   00006A   90....       MOV     DPTR,#SampleApp_epDesc
   \   00006D   7414         MOV     A,#0x14
   \   00006F   F0           MOVX    @DPTR,A
    235            SampleApp_epDesc.task_id = &SampleApp_TaskID;
   \   000070   A3           INC     DPTR
   \   000071   74..         MOV     A,#SampleApp_TaskID & 0xff
   \   000073   F0           MOVX    @DPTR,A
   \   000074   A3           INC     DPTR
   \   000075   74..         MOV     A,#(SampleApp_TaskID >> 8) & 0xff
   \   000077   F0           MOVX    @DPTR,A
    236            SampleApp_epDesc.simpleDesc
    237                      = (SimpleDescriptionFormat_t *)&SampleApp_SimpleDesc;
   \   000078   A3           INC     DPTR
   \   000079   74..         MOV     A,#SampleApp_SimpleDesc & 0xff
   \   00007B   F0           MOVX    @DPTR,A
   \   00007C   A3           INC     DPTR
   \   00007D   74..         MOV     A,#(SampleApp_SimpleDesc >> 8) & 0xff
   \   00007F   F0           MOVX    @DPTR,A
    238            SampleApp_epDesc.latencyReq = noLatencyReqs;
   \   000080   A3           INC     DPTR
   \   000081   E4           CLR     A
   \   000082   F0           MOVX    @DPTR,A
    239          
    240            // Register the endpoint description with the AF
    241            afRegister( &SampleApp_epDesc );
   \   000083                ; Setup parameters for call to function afRegister
   \   000083   7A..         MOV     R2,#SampleApp_epDesc & 0xff
   \   000085   7B..         MOV     R3,#(SampleApp_epDesc >> 8) & 0xff
   \   000087   12....       LCALL   ??afRegister?relay
    242          
    243            // Register for all key events - This app will handle all key events
    244            RegisterForKeys( SampleApp_TaskID );
   \   00008A                ; Setup parameters for call to function RegisterForKeys
   \   00008A   90....       MOV     DPTR,#SampleApp_TaskID
   \   00008D   E0           MOVX    A,@DPTR
   \   00008E   F9           MOV     R1,A
   \   00008F   12....       LCALL   ??RegisterForKeys?relay
    245          
    246            // By default, all devices start out in Group 1
    247            SampleApp_Group.ID = 0x0001;
   \   000092   90....       MOV     DPTR,#SampleApp_Group
   \   000095   7401         MOV     A,#0x1
   \   000097   F0           MOVX    @DPTR,A
   \   000098   A3           INC     DPTR
   \   000099   E4           CLR     A
   \   00009A   F0           MOVX    @DPTR,A
    248            osal_memcpy( SampleApp_Group.name, "Group 1", 7  );
   \   00009B                ; Setup parameters for call to function osal_memcpy
   \   00009B   75....       MOV     ?V0 + 0,#`?<Constant "Group 1">` & 0xff
   \   00009E   75....       MOV     ?V0 + 1,#(`?<Constant "Group 1">` >> 8) & 0xff
   \   0000A1   F5..         MOV     ?V0 + 2,A
   \   0000A3   78..         MOV     R0,#?V0 + 0
   \   0000A5   12....       LCALL   ?PUSH_XSTACK_I_THREE
   \   0000A8   7C07         MOV     R4,#0x7
   \   0000AA   7D00         MOV     R5,#0x0
   \   0000AC   7A..         MOV     R2,#(SampleApp_Group + 2) & 0xff
   \   0000AE   7B..         MOV     R3,#((SampleApp_Group + 2) >> 8) & 0xff
   \   0000B0   12....       LCALL   ??osal_memcpy?relay
   \   0000B3   7403         MOV     A,#0x3
   \   0000B5   12....       LCALL   ?DEALLOC_XSTACK8
    249            aps_AddGroup( SAMPLEAPP_ENDPOINT, &SampleApp_Group );
   \   0000B8                ; Setup parameters for call to function aps_AddGroup
   \   0000B8   7A..         MOV     R2,#SampleApp_Group & 0xff
   \   0000BA   7B..         MOV     R3,#(SampleApp_Group >> 8) & 0xff
   \   0000BC   7914         MOV     R1,#0x14
   \   0000BE   12....       LCALL   ??aps_AddGroup?relay
    250          
    251          #if defined ( LCD_SUPPORTED )
    252            HalLcdWriteString( "SampleApp", HAL_LCD_LINE_1 );
    253          #endif
    254          }
   \   0000C1   7F03         MOV     R7,#0x3
   \   0000C3   02....       LJMP    ?BANKED_LEAVE_XDATA
   \   0000C6                REQUIRE P1DIR
   \   0000C6                REQUIRE P1INP
   \   0000C6                REQUIRE P0SEL
    255          
    256          /*********************************************************************
    257           * @fn      SampleApp_ProcessEvent
    258           *
    259           * @brief   Generic Application Task event processor.  This function
    260           *          is called to process all events for the task.  Events
    261           *          include timers, messages and any other user defined events.
    262           *
    263           * @param   task_id  - The OSAL assigned task ID.
    264           * @param   events - events to process.  This is a bit map and can
    265           *                   contain more than one event.
    266           *
    267           * @return  none
    268           */

   \                                 In  segment BANKED_CODE, align 1, keep-with-next
    269          uint16 SampleApp_ProcessEvent( uint8 task_id, uint16 events )
   \                     SampleApp_ProcessEvent:
    270          {
   \   000000   74F4         MOV     A,#-0xc
   \   000002   12....       LCALL   ?BANKED_ENTER_XDATA
   \   000005                ; Saved register size: 12
   \   000005                ; Auto size: 0
   \   000005   EA           MOV     A,R2
   \   000006   FE           MOV     R6,A
   \   000007   EB           MOV     A,R3
   \   000008   FF           MOV     R7,A
    271            afIncomingMSGPacket_t *MSGpkt;
    272            (void)task_id;  // Intentionally unreferenced parameter
    273          
    274            if ( events & SYS_EVENT_MSG )
   \   000009   5480         ANL     A,#0x80
   \   00000B   7003         JNZ     $+5
   \   00000D   02....       LJMP    ??SampleApp_ProcessEvent_0 & 0xFFFF
    275            {
    276              MSGpkt = (afIncomingMSGPacket_t *)osal_msg_receive( SampleApp_TaskID );
   \   000010                ; Setup parameters for call to function osal_msg_receive
   \   000010   8014         SJMP    ??SampleApp_ProcessEvent_1
    277              while ( MSGpkt )
    278              {
    279                switch ( MSGpkt->hdr.event )
    280                {
    281                  // Received when a key is pressed
    282                  case KEY_CHANGE:
    283                    HalUARTWrite(0, "Key Changed\n", sizeof("Key Changed\n")-1);
    284                    SampleApp_HandleKeys( ((keyChange_t *)MSGpkt)->state, ((keyChange_t *)MSGpkt)->keys );
    285                    break;
    286          
    287                  // Received when a messages is received (OTA) for this endpoint
    288                  case AF_INCOMING_MSG_CMD:
    289                    HalUARTWrite(0, "Data Come\n", sizeof("Data Come\n")-1);
    290                    SampleApp_MessageMSGCB( MSGpkt );
    291                    break;
    292          
    293                  // Received whenever the device changes state in the network
    294                  case ZDO_STATE_CHANGE:
    295                    SampleApp_NwkState = (devStates_t)(MSGpkt->hdr.status);
    296                    if ( (SampleApp_NwkState == DEV_ZB_COORD)
    297                        || (SampleApp_NwkState == DEV_ROUTER)
    298                        || (SampleApp_NwkState == DEV_END_DEVICE) )
    299                    {
    300          //             Start sending the periodic message in a regular interval.
    301                      osal_start_timerEx( SampleApp_TaskID,
    302                                        SAMPLEAPP_SEND_PERIODIC_MSG_EVT,
    303                                        SAMPLEAPP_SEND_PERIODIC_MSG_TIMEOUT ); 
    304                    }
    305                    else
    306                    {
    307                      // Device is no longer in the network
    308                      HalUARTWrite(0, "Out\n", 4);
   \                     ??SampleApp_ProcessEvent_2:
   \   000012                ; Setup parameters for call to function HalUARTWrite
   \   000012   7C04         MOV     R4,#0x4
   \   000014   7D00         MOV     R5,#0x0
   \   000016   7A..         MOV     R2,#`?<Constant "Out\\n">` & 0xff
   \   000018   7B..         MOV     R3,#(`?<Constant "Out\\n">` >> 8) & 0xff
   \   00001A   7900         MOV     R1,#0x0
   \   00001C   12....       LCALL   ??HalUARTWrite?relay
    309                    }
    310                    break;
    311          
    312                  default:
    313                    break;
    314                }
    315          
    316                // Release the memory
    317                osal_msg_deallocate( (uint8 *)MSGpkt );
   \                     ??SampleApp_ProcessEvent_3:
   \   00001F                ; Setup parameters for call to function osal_msg_deallocate
   \   00001F   AA..         MOV     R2,?V0 + 0
   \   000021   AB..         MOV     R3,?V0 + 1
   \   000023   12....       LCALL   ??osal_msg_deallocate?relay
    318          
    319                // Next - if one is available
    320                MSGpkt = (afIncomingMSGPacket_t *)osal_msg_receive( SampleApp_TaskID );
   \   000026                ; Setup parameters for call to function osal_msg_receive
   \                     ??SampleApp_ProcessEvent_1:
   \   000026   90....       MOV     DPTR,#SampleApp_TaskID
   \   000029   E0           MOVX    A,@DPTR
   \   00002A   F9           MOV     R1,A
   \   00002B   12....       LCALL   ??osal_msg_receive?relay
   \   00002E   8A..         MOV     ?V0 + 0,R2
   \   000030   8B..         MOV     ?V0 + 1,R3
   \   000032   E5..         MOV     A,?V0 + 0
   \   000034   45..         ORL     A,?V0 + 1
   \   000036   607C         JZ      ??SampleApp_ProcessEvent_4
   \   000038   85..82       MOV     DPL,?V0 + 0
   \   00003B   85..83       MOV     DPH,?V0 + 1
   \   00003E   E0           MOVX    A,@DPTR
   \   00003F   24E6         ADD     A,#-0x1a
   \   000041   6031         JZ      ??SampleApp_ProcessEvent_5
   \   000043   245A         ADD     A,#0x5a
   \   000045   6006         JZ      ??SampleApp_ProcessEvent_6
   \   000047   24EF         ADD     A,#-0x11
   \   000049   603F         JZ      ??SampleApp_ProcessEvent_7
   \   00004B   80D2         SJMP    ??SampleApp_ProcessEvent_3
   \                     ??SampleApp_ProcessEvent_6:
   \   00004D                ; Setup parameters for call to function HalUARTWrite
   \   00004D   7C0C         MOV     R4,#0xc
   \   00004F   7D00         MOV     R5,#0x0
   \   000051   7A..         MOV     R2,#`?<Constant "Key Changed\\n">` & 0xff
   \   000053   7B..         MOV     R3,#(`?<Constant "Key Changed\\n">` >> 8) & 0xff
   \   000055   7900         MOV     R1,#0x0
   \   000057   12....       LCALL   ??HalUARTWrite?relay
   \   00005A                ; Setup parameters for call to function SampleApp_HandleKeys
   \   00005A   85..82       MOV     DPL,?V0 + 0
   \   00005D   85..83       MOV     DPH,?V0 + 1
   \   000060   A3           INC     DPTR
   \   000061   A3           INC     DPTR
   \   000062   A3           INC     DPTR
   \   000063   E0           MOVX    A,@DPTR
   \   000064   FA           MOV     R2,A
   \   000065   85..82       MOV     DPL,?V0 + 0
   \   000068   85..83       MOV     DPH,?V0 + 1
   \   00006B   A3           INC     DPTR
   \   00006C   A3           INC     DPTR
   \   00006D   E0           MOVX    A,@DPTR
   \   00006E   F9           MOV     R1,A
   \   00006F   12....       LCALL   ??SampleApp_HandleKeys?relay
   \   000072   80AB         SJMP    ??SampleApp_ProcessEvent_3
   \                     ??SampleApp_ProcessEvent_5:
   \   000074                ; Setup parameters for call to function HalUARTWrite
   \   000074   7C0A         MOV     R4,#0xa
   \   000076   7D00         MOV     R5,#0x0
   \   000078   7A..         MOV     R2,#`?<Constant "Data Come\\n">` & 0xff
   \   00007A   7B..         MOV     R3,#(`?<Constant "Data Come\\n">` >> 8) & 0xff
   \   00007C   7900         MOV     R1,#0x0
   \   00007E   12....       LCALL   ??HalUARTWrite?relay
   \   000081                ; Setup parameters for call to function SampleApp_MessageMSGCB
   \   000081   AA..         MOV     R2,?V0 + 0
   \   000083   AB..         MOV     R3,?V0 + 1
   \   000085   12....       LCALL   ??SampleApp_MessageMSGCB?relay
   \   000088   8095         SJMP    ??SampleApp_ProcessEvent_3
   \                     ??SampleApp_ProcessEvent_7:
   \   00008A   A3           INC     DPTR
   \   00008B   E0           MOVX    A,@DPTR
   \   00008C   90....       MOV     DPTR,#SampleApp_NwkState
   \   00008F   F0           MOVX    @DPTR,A
   \   000090   6409         XRL     A,#0x9
   \   000092   600D         JZ      ??SampleApp_ProcessEvent_8
   \   000094   E0           MOVX    A,@DPTR
   \   000095   6407         XRL     A,#0x7
   \   000097   6008         JZ      ??SampleApp_ProcessEvent_8
   \   000099   E0           MOVX    A,@DPTR
   \   00009A   6406         XRL     A,#0x6
   \   00009C   6003         JZ      $+5
   \   00009E   02....       LJMP    ??SampleApp_ProcessEvent_2 & 0xFFFF
   \                     ??SampleApp_ProcessEvent_8:
   \   0000A1                ; Setup parameters for call to function osal_start_timerEx
   \   0000A1   7CD0         MOV     R4,#-0x30
   \   0000A3   7D07         MOV     R5,#0x7
   \   0000A5   7A01         MOV     R2,#0x1
   \   0000A7   7B00         MOV     R3,#0x0
   \   0000A9   90....       MOV     DPTR,#SampleApp_TaskID
   \   0000AC   E0           MOVX    A,@DPTR
   \   0000AD   F9           MOV     R1,A
   \   0000AE   12....       LCALL   ??osal_start_timerEx?relay
   \   0000B1   02....       LJMP    ??SampleApp_ProcessEvent_3 & 0xFFFF
    321              }
    322          
    323              // return unprocessed events
    324              return (events ^ SYS_EVENT_MSG);
   \                     ??SampleApp_ProcessEvent_4:
   \   0000B4   EE           MOV     A,R6
   \   0000B5   FA           MOV     R2,A
   \   0000B6   EF           MOV     A,R7
   \   0000B7   6480         XRL     A,#0x80
   \                     ??SampleApp_ProcessEvent_9:
   \   0000B9   FB           MOV     R3,A
   \   0000BA   802A         SJMP    ??SampleApp_ProcessEvent_10
    325            }
    326          
    327            // Send a message out - This event is generated by a timer
    328            //  (setup in SampleApp_Init()).
    329            if ( events & SAMPLEAPP_SEND_PERIODIC_MSG_EVT )
   \                     ??SampleApp_ProcessEvent_0:
   \   0000BC   EE           MOV     A,R6
   \   0000BD   A2E0         MOV     C,0xE0 /* A   */.0
   \   0000BF   5021         JNC     ??SampleApp_ProcessEvent_11
    330            {
    331              // Send the periodic message
    332              //SampleApp_SendPeriodicMessage();
    333              SampleApp_SendPointMessage();
   \   0000C1                ; Setup parameters for call to function SampleApp_SendPointMessage
   \   0000C1   12....       LCALL   ??SampleApp_SendPointMessage?relay
    334                
    335              // Setup to send message again in normal period (+ a little jitter)
    336              osal_start_timerEx( SampleApp_TaskID, SAMPLEAPP_SEND_PERIODIC_MSG_EVT,
    337                  (SAMPLEAPP_SEND_PERIODIC_MSG_TIMEOUT + (osal_rand() & 0x00FF)) );
   \   0000C4                ; Setup parameters for call to function osal_rand
   \   0000C4   12....       LCALL   ??osal_rand?relay
   \   0000C7                ; Setup parameters for call to function osal_start_timerEx
   \   0000C7   EA           MOV     A,R2
   \   0000C8   24D0         ADD     A,#-0x30
   \   0000CA   FC           MOV     R4,A
   \   0000CB   E4           CLR     A
   \   0000CC   3407         ADDC    A,#0x7
   \   0000CE   FD           MOV     R5,A
   \   0000CF   7A01         MOV     R2,#0x1
   \   0000D1   7B00         MOV     R3,#0x0
   \   0000D3   90....       MOV     DPTR,#SampleApp_TaskID
   \   0000D6   E0           MOVX    A,@DPTR
   \   0000D7   F9           MOV     R1,A
   \   0000D8   12....       LCALL   ??osal_start_timerEx?relay
    338          
    339              // return unprocessed events
    340              return (events ^ SAMPLEAPP_SEND_PERIODIC_MSG_EVT);
   \   0000DB   EE           MOV     A,R6
   \   0000DC   6401         XRL     A,#0x1
   \   0000DE   FA           MOV     R2,A
   \   0000DF   EF           MOV     A,R7
   \   0000E0   80D7         SJMP    ??SampleApp_ProcessEvent_9
    341            }
    342          
    343            // Discard unknown events
    344            return 0;
   \                     ??SampleApp_ProcessEvent_11:
   \   0000E2   7A00         MOV     R2,#0x0
   \   0000E4   7B00         MOV     R3,#0x0
   \                     ??SampleApp_ProcessEvent_10:
   \   0000E6   7F04         MOV     R7,#0x4
   \   0000E8   02....       LJMP    ?BANKED_LEAVE_XDATA
    345          }
    346          
    347          /*********************************************************************
    348           * Event Generation Functions
    349           */
    350          /*********************************************************************
    351           * @fn      SampleApp_HandleKeys
    352           *
    353           * @brief   Handles all key events for this device.
    354           *
    355           * @param   shift - true if in shift/alt.
    356           * @param   keys - bit field for key events. Valid entries:
    357           *                 HAL_KEY_SW_2
    358           *                 HAL_KEY_SW_1
    359           *
    360           * @return  none
    361           */

   \                                 In  segment BANKED_CODE, align 1, keep-with-next
    362          void SampleApp_HandleKeys( uint8 shift, uint8 keys )
   \                     SampleApp_HandleKeys:
    363          {
   \   000000   74F6         MOV     A,#-0xa
   \   000002   12....       LCALL   ?BANKED_ENTER_XDATA
   \   000005                ; Saved register size: 10
   \   000005                ; Auto size: 0
   \   000005   EA           MOV     A,R2
   \   000006   FE           MOV     R6,A
    364            (void)shift;  // Intentionally unreferenced parameter
    365            
    366            if ( keys & HAL_KEY_SW_1 )
   \   000007   A2E0         MOV     C,0xE0 /* A   */.0
   \   000009   5007         JNC     ??SampleApp_HandleKeys_0
    367            {
    368              /* This key sends the Flash Command is sent to Group 1.
    369               * This device will not receive the Flash Command from this
    370               * device (even if it belongs to group 1).
    371               */
    372              SampleApp_SendFlashMessage( SAMPLEAPP_FLASH_DURATION );
   \   00000B                ; Setup parameters for call to function SampleApp_SendFlashMessage
   \   00000B   7AE8         MOV     R2,#-0x18
   \   00000D   7B03         MOV     R3,#0x3
   \   00000F   12....       LCALL   ??SampleApp_SendFlashMessage?relay
    373            }
    374          
    375            if ( keys & HAL_KEY_SW_2 )
   \                     ??SampleApp_HandleKeys_0:
   \   000012   EE           MOV     A,R6
   \   000013   A2E1         MOV     C,0xE0 /* A   */.1
   \   000015   5024         JNC     ??SampleApp_HandleKeys_1
    376            {
    377              /* The Flashr Command is sent to Group 1.
    378               * This key toggles this device in and out of group 1.
    379               * If this device doesn't belong to group 1, this application
    380               * will not receive the Flash command sent to group 1.
    381               */
    382              aps_Group_t *grp;
    383              grp = aps_FindGroup( SAMPLEAPP_ENDPOINT, SAMPLEAPP_FLASH_GROUP );
    384              if ( grp )
   \   000017                ; Setup parameters for call to function aps_FindGroup
   \   000017   7A01         MOV     R2,#0x1
   \   000019   7B00         MOV     R3,#0x0
   \   00001B   7914         MOV     R1,#0x14
   \   00001D   12....       LCALL   ??aps_FindGroup?relay
   \   000020   8B..         MOV     ?V0 + 1,R3
   \   000022   EA           MOV     A,R2
   \   000023   45..         ORL     A,?V0 + 1
   \   000025   600B         JZ      ??SampleApp_HandleKeys_2
    385              {
    386                // Remove from the group
    387                aps_RemoveGroup( SAMPLEAPP_ENDPOINT, SAMPLEAPP_FLASH_GROUP );
   \   000027                ; Setup parameters for call to function aps_RemoveGroup
   \   000027   7A01         MOV     R2,#0x1
   \   000029   7B00         MOV     R3,#0x0
   \   00002B   7914         MOV     R1,#0x14
   \   00002D   12....       LCALL   ??aps_RemoveGroup?relay
   \   000030   8009         SJMP    ??SampleApp_HandleKeys_1
    388              }
    389              else
    390              {
    391                // Add to the flash group
    392                aps_AddGroup( SAMPLEAPP_ENDPOINT, &SampleApp_Group );
   \                     ??SampleApp_HandleKeys_2:
   \   000032                ; Setup parameters for call to function aps_AddGroup
   \   000032   7A..         MOV     R2,#SampleApp_Group & 0xff
   \   000034   7B..         MOV     R3,#(SampleApp_Group >> 8) & 0xff
   \   000036   7914         MOV     R1,#0x14
   \   000038   12....       LCALL   ??aps_AddGroup?relay
    393              }
    394            }
    395            
    396            if (keys &  HAL_KEY_SW_6)
   \                     ??SampleApp_HandleKeys_1:
   \   00003B   EE           MOV     A,R6
   \   00003C   A2E5         MOV     C,0xE0 /* A   */.5
   \   00003E   501A         JNC     ??SampleApp_HandleKeys_3
    397            {
    398              HalUARTWrite(0, "In Handlekey\n", sizeof("In HandleKey\n")-1);
   \   000040                ; Setup parameters for call to function HalUARTWrite
   \   000040   7C0D         MOV     R4,#0xd
   \   000042   7D00         MOV     R5,#0x0
   \   000044   7A..         MOV     R2,#`?<Constant "In Handlekey\\n">` & 0xff
   \   000046   7B..         MOV     R3,#(`?<Constant "In Handlekey\\n">` >> 8) & 0xff
   \   000048   7900         MOV     R1,#0x0
   \   00004A   12....       LCALL   ??HalUARTWrite?relay
    399              HalLedBlink(HAL_LED_1, 2, 50, 500);
   \   00004D                ; Setup parameters for call to function HalLedBlink
   \   00004D   7CF4         MOV     R4,#-0xc
   \   00004F   7D01         MOV     R5,#0x1
   \   000051   7B32         MOV     R3,#0x32
   \   000053   7A02         MOV     R2,#0x2
   \   000055   7901         MOV     R1,#0x1
   \   000057   12....       LCALL   ??HalLedBlink?relay
    400            }
    401          }
   \                     ??SampleApp_HandleKeys_3:
   \   00005A   02....       LJMP    ??Subroutine1_0 & 0xFFFF

   \                                 In  segment BANKED_CODE, align 1, keep-with-next
   \                     ??Subroutine1_0:
   \   000000   7F02         MOV     R7,#0x2
   \   000002   02....       LJMP    ?BANKED_LEAVE_XDATA
    402          
    403          /*********************************************************************
    404           * LOCAL FUNCTIONS
    405           */
    406          
    407          /*********************************************************************
    408           * @fn      SampleApp_MessageMSGCB
    409           *
    410           * @brief   Data message processor callback.  This function processes
    411           *          any incoming data - probably from other devices.  So, based
    412           *          on cluster ID, perform the intended action.
    413           *
    414           * @param   none
    415           *
    416           * @return  none
    417           */

   \                                 In  segment BANKED_CODE, align 1, keep-with-next
    418          void SampleApp_MessageMSGCB( afIncomingMSGPacket_t *pkt )
   \                     SampleApp_MessageMSGCB:
    419          {
   \   000000   74F6         MOV     A,#-0xa
   \   000002   12....       LCALL   ?BANKED_ENTER_XDATA
   \   000005                ; Saved register size: 10
   \   000005                ; Auto size: 0
    420            uint16 flashTime;
    421          
    422            switch ( pkt->clusterId )
   \   000005   8A82         MOV     DPL,R2
   \   000007   8B83         MOV     DPH,R3
   \   000009   A3           INC     DPTR
   \   00000A   A3           INC     DPTR
   \   00000B   A3           INC     DPTR
   \   00000C   A3           INC     DPTR
   \   00000D   E0           MOVX    A,@DPTR
   \   00000E   F5..         MOV     ?V0 + 0,A
   \   000010   A3           INC     DPTR
   \   000011   E0           MOVX    A,@DPTR
   \   000012   F5..         MOV     ?V0 + 1,A
   \   000014   78..         MOV     R0,#?V0 + 0
   \   000016   12....       LCALL   ?US_SWITCH_DENSE
   \                     `?<Jumptable for SampleApp_MessageMSGCB>_0`:
   \   000019   0100         DW        1
   \   00001B   01           DB        1
   \   00001C   ....         DW        ??SampleApp_MessageMSGCB_0
   \   00001E   ....         DW        ??SampleApp_MessageMSGCB_1
   \   000020   ....         DW        ??SampleApp_MessageMSGCB_2
    423            {
    424              case SAMPLEAPP_PERIODIC_CLUSTERID:
    425                HalUARTWrite(0, "In MSGCB\n", sizeof("In MSGCB")-1);
   \                     ??SampleApp_MessageMSGCB_1:
   \   000022                ; Setup parameters for call to function HalUARTWrite
   \   000022   7C08         MOV     R4,#0x8
   \   000024   7D00         MOV     R5,#0x0
   \   000026   7A..         MOV     R2,#`?<Constant "In MSGCB\\n">` & 0xff
   \   000028   7B..         MOV     R3,#(`?<Constant "In MSGCB\\n">` >> 8) & 0xff
   \   00002A   7900         MOV     R1,#0x0
   \   00002C   12....       LCALL   ??HalUARTWrite?relay
    426                break;
   \   00002F   803B         SJMP    ??SampleApp_MessageMSGCB_0
    427          
    428              case SAMPLEAPP_FLASH_CLUSTERID:
    429                flashTime = BUILD_UINT16(pkt->cmd.Data[1], pkt->cmd.Data[2] );
    430                HalLedBlink( HAL_LED_4, 4, 50, (flashTime / 4) );
   \                     ??SampleApp_MessageMSGCB_2:
   \   000031   EA           MOV     A,R2
   \   000032   2422         ADD     A,#0x22
   \   000034   F582         MOV     DPL,A
   \   000036   EB           MOV     A,R3
   \   000037   3400         ADDC    A,#0x0
   \   000039   F583         MOV     DPH,A
   \   00003B   E0           MOVX    A,@DPTR
   \   00003C   F8           MOV     R0,A
   \   00003D   A3           INC     DPTR
   \   00003E   E0           MOVX    A,@DPTR
   \   00003F   F9           MOV     R1,A
   \   000040                ; Setup parameters for call to function HalLedBlink
   \   000040   8882         MOV     DPL,R0
   \   000042   8983         MOV     DPH,R1
   \   000044   A3           INC     DPTR
   \   000045   E0           MOVX    A,@DPTR
   \   000046   FA           MOV     R2,A
   \   000047   8882         MOV     DPL,R0
   \   000049   8983         MOV     DPH,R1
   \   00004B   A3           INC     DPTR
   \   00004C   A3           INC     DPTR
   \   00004D   E0           MOVX    A,@DPTR
   \   00004E   F9           MOV     R1,A
   \   00004F   EA           MOV     A,R2
   \   000050   2400         ADD     A,#0x0
   \   000052   F5..         MOV     ?V0 + 0,A
   \   000054   E4           CLR     A
   \   000055   39           ADDC    A,R1
   \   000056   F5..         MOV     ?V0 + 1,A
   \   000058   7402         MOV     A,#0x2
   \   00005A   78..         MOV     R0,#?V0 + 0
   \   00005C   12....       LCALL   ?US_SHR
   \   00005F   AC..         MOV     R4,?V0 + 0
   \   000061   AD..         MOV     R5,?V0 + 1
   \   000063   7B32         MOV     R3,#0x32
   \   000065   7A04         MOV     R2,#0x4
   \   000067   7908         MOV     R1,#0x8
   \   000069   12....       LCALL   ??HalLedBlink?relay
    431                break;
    432            }
    433          }
   \                     ??SampleApp_MessageMSGCB_0:
   \   00006C   02....       LJMP    ??Subroutine1_0 & 0xFFFF
    434          
    435          /*********************************************************************
    436           * @fn      SampleApp_SendPeriodicMessage
    437           *
    438           * @brief   Send the periodic message.
    439           *
    440           * @param   none
    441           *
    442           * @return  none
    443           */

   \                                 In  segment BANKED_CODE, align 1, keep-with-next
    444          void SampleApp_SendPeriodicMessage( void )
   \                     SampleApp_SendPeriodicMessage:
    445          {
   \   000000   74F6         MOV     A,#-0xa
   \   000002   12....       LCALL   ?BANKED_ENTER_XDATA
   \   000005                ; Saved register size: 10
   \   000005                ; Auto size: 9
   \   000005   74F7         MOV     A,#-0x9
   \   000007   12....       LCALL   ?ALLOC_XSTACK8
    446            uchar data[] = "From Ep\n"; 
   \   00000A   85..82       MOV     DPL,?XSP + 0
   \   00000D   85..83       MOV     DPH,?XSP + 1
   \   000010   AC82         MOV     R4,DPL
   \   000012   AD83         MOV     R5,DPH
   \   000014   7583..       MOV     DPH,#(`?<Constant "From Ep\\n">` >> 8) & 0xff
   \   000017   7582..       MOV     DPL,#`?<Constant "From Ep\\n">` & 0xff
   \   00001A   7409         MOV     A,#0x9
   \   00001C   12....       LCALL   ?MOVE_LONG8_XDATA_XDATA
    447            if ( AF_DataRequest( &SampleApp_Periodic_DstAddr, &SampleApp_epDesc,
    448                                 SAMPLEAPP_PERIODIC_CLUSTERID,
    449                                 sizeof(data),
    450                                 data,
    451                                 &SampleApp_TransID,
    452                                 AF_DISCV_ROUTE,
    453                                 AF_DEFAULT_RADIUS ) == afStatus_SUCCESS )
   \   00001F                ; Setup parameters for call to function AF_DataRequest
   \   00001F   75..1E       MOV     ?V0 + 0,#0x1e
   \   000022   78..         MOV     R0,#?V0 + 0
   \   000024   12....       LCALL   ?PUSH_XSTACK_I_ONE
   \   000027   75....       MOV     ?V0 + 0,#SampleApp_TransID & 0xff
   \   00002A   75....       MOV     ?V0 + 1,#(SampleApp_TransID >> 8) & 0xff
   \   00002D   78..         MOV     R0,#?V0 + 0
   \   00002F   12....       LCALL   ?PUSH_XSTACK_I_TWO
   \   000032   7403         MOV     A,#0x3
   \   000034   12....       LCALL   ?XSTACK_DISP0_8
   \   000037   8582..       MOV     ?V0 + 0,DPL
   \   00003A   8583..       MOV     ?V0 + 1,DPH
   \   00003D   78..         MOV     R0,#?V0 + 0
   \   00003F   12....       LCALL   ?PUSH_XSTACK_I_TWO
   \   000042   75..09       MOV     ?V0 + 0,#0x9
   \   000045   75..00       MOV     ?V0 + 1,#0x0
   \   000048   78..         MOV     R0,#?V0 + 0
   \   00004A   12....       LCALL   ?PUSH_XSTACK_I_TWO
   \   00004D   75..01       MOV     ?V0 + 0,#0x1
   \   000050   78..         MOV     R0,#?V0 + 0
   \   000052   12....       LCALL   ?PUSH_XSTACK_I_TWO
   \   000055   7920         MOV     R1,#0x20
   \   000057   7C..         MOV     R4,#SampleApp_epDesc & 0xff
   \   000059   7D..         MOV     R5,#(SampleApp_epDesc >> 8) & 0xff
   \   00005B   7A..         MOV     R2,#SampleApp_Periodic_DstAddr & 0xff
   \   00005D   7B..         MOV     R3,#(SampleApp_Periodic_DstAddr >> 8) & 0xff
   \   00005F   12....       LCALL   ??AF_DataRequest?relay
   \   000062   7409         MOV     A,#0x9
   \   000064   12....       LCALL   ?DEALLOC_XSTACK8
   \   000067   E9           MOV     A,R1
   \   000068   701D         JNZ     ??SampleApp_SendPeriodicMessage_0
    454            {
    455              HalUARTWrite(0, "In Ep SampleApp_SendPeriodMessage : Succeed\n", sizeof("In Ep SampleApp_SendPeriodMessage : Succeed\n")-1);
   \   00006A                ; Setup parameters for call to function HalUARTWrite
   \   00006A   7C2C         MOV     R4,#0x2c
   \   00006C   7D00         MOV     R5,#0x0
   \   00006E   7A..         MOV     R2,#`?<Constant "In Ep SampleApp_SendP...">` & 0xff
   \   000070   7B..         MOV     R3,#(`?<Constant "In Ep SampleApp_SendP...">` >> 8) & 0xff
   \   000072   7900         MOV     R1,#0x0
   \   000074   12....       LCALL   ??HalUARTWrite?relay
    456              HalUARTWrite(0, data, sizeof(data));
   \   000077                ; Setup parameters for call to function HalUARTWrite
   \   000077   7C09         MOV     R4,#0x9
   \   000079   7D00         MOV     R5,#0x0
   \   00007B   85..82       MOV     DPL,?XSP + 0
   \   00007E   85..83       MOV     DPH,?XSP + 1
   \   000081   AA82         MOV     R2,DPL
   \   000083   AB83         MOV     R3,DPH
   \   000085   8008         SJMP    ??SampleApp_SendPeriodicMessage_1
    457            }
    458            else
    459            {
    460              // Error occurred in request to send.
    461              HalUARTWrite(0, "In Ep SampleApp_SendPeriodMessage : Failed\n", sizeof("In Ep SampleApp_SendPeriodMessage : Failed\n")-1);
   \                     ??SampleApp_SendPeriodicMessage_0:
   \   000087                ; Setup parameters for call to function HalUARTWrite
   \   000087   7C2B         MOV     R4,#0x2b
   \   000089   7D00         MOV     R5,#0x0
   \   00008B   7A..         MOV     R2,#`?<Constant "In Ep SampleApp_SendP...">_1` & 0xff
   \   00008D   7B..         MOV     R3,#(`?<Constant "In Ep SampleApp_SendP...">_1` >> 8) & 0xff
   \                     ??SampleApp_SendPeriodicMessage_1:
   \   00008F   7900         MOV     R1,#0x0
   \   000091   12....       LCALL   ??HalUARTWrite?relay
    462            }
    463          }
   \   000094   7409         MOV     A,#0x9
   \   000096   02....       LJMP    ?Subroutine0 & 0xFFFF

   \                                 In  segment BANKED_CODE, align 1, keep-with-next
   \                     ?Subroutine0:
   \   000000   12....       LCALL   ?DEALLOC_XSTACK8
   \   000003                REQUIRE ??Subroutine1_0
   \   000003                ; // Fall through to label ??Subroutine1_0
    464          
    465          /*********************************************************************
    466           * @fn      SampleApp_SendFlashMessage
    467           *
    468           * @brief   Send the flash message to group 1.
    469           *
    470           * @param   flashTime - in milliseconds
    471           *
    472           * @return  none
    473           */

   \                                 In  segment BANKED_CODE, align 1, keep-with-next
    474          void SampleApp_SendFlashMessage( uint16 flashTime )
   \                     SampleApp_SendFlashMessage:
    475          {
   \   000000   74F6         MOV     A,#-0xa
   \   000002   12....       LCALL   ?BANKED_ENTER_XDATA
   \   000005                ; Saved register size: 10
   \   000005                ; Auto size: 3
   \   000005   74FD         MOV     A,#-0x3
   \   000007   12....       LCALL   ?ALLOC_XSTACK8
    476            uint8 buffer[3];
    477            buffer[0] = (uint8)(SampleAppFlashCounter++);
   \   00000A   90....       MOV     DPTR,#SampleAppFlashCounter
   \   00000D   E0           MOVX    A,@DPTR
   \   00000E   85..82       MOV     DPL,?XSP + 0
   \   000011   85..83       MOV     DPH,?XSP + 1
   \   000014   F0           MOVX    @DPTR,A
   \   000015   90....       MOV     DPTR,#SampleAppFlashCounter
   \   000018   E0           MOVX    A,@DPTR
   \   000019   04           INC     A
   \   00001A   F0           MOVX    @DPTR,A
    478            buffer[1] = LO_UINT16( flashTime );
   \   00001B   7401         MOV     A,#0x1
   \   00001D   12....       LCALL   ?XSTACK_DISP0_8
   \   000020   EA           MOV     A,R2
   \   000021   F0           MOVX    @DPTR,A
    479            buffer[2] = HI_UINT16( flashTime );
   \   000022   7402         MOV     A,#0x2
   \   000024   12....       LCALL   ?XSTACK_DISP0_8
   \   000027   EB           MOV     A,R3
   \   000028   F0           MOVX    @DPTR,A
    480          
    481            if ( AF_DataRequest( &SampleApp_Flash_DstAddr, &SampleApp_epDesc,
    482                                 SAMPLEAPP_FLASH_CLUSTERID,
    483                                 3,
    484                                 buffer,
    485                                 &SampleApp_TransID,
    486                                 AF_DISCV_ROUTE,
    487                                 AF_DEFAULT_RADIUS ) == afStatus_SUCCESS )
   \   000029                ; Setup parameters for call to function AF_DataRequest
   \   000029   75..1E       MOV     ?V0 + 0,#0x1e
   \   00002C   78..         MOV     R0,#?V0 + 0
   \   00002E   12....       LCALL   ?PUSH_XSTACK_I_ONE
   \   000031   75....       MOV     ?V0 + 0,#SampleApp_TransID & 0xff
   \   000034   75....       MOV     ?V0 + 1,#(SampleApp_TransID >> 8) & 0xff
   \   000037   78..         MOV     R0,#?V0 + 0
   \   000039   12....       LCALL   ?PUSH_XSTACK_I_TWO
   \   00003C   7403         MOV     A,#0x3
   \   00003E   12....       LCALL   ?XSTACK_DISP0_8
   \   000041   8582..       MOV     ?V0 + 0,DPL
   \   000044   8583..       MOV     ?V0 + 1,DPH
   \   000047   78..         MOV     R0,#?V0 + 0
   \   000049   12....       LCALL   ?PUSH_XSTACK_I_TWO
   \   00004C   75..03       MOV     ?V0 + 0,#0x3
   \   00004F   75..00       MOV     ?V0 + 1,#0x0
   \   000052   78..         MOV     R0,#?V0 + 0
   \   000054   12....       LCALL   ?PUSH_XSTACK_I_TWO
   \   000057   75..02       MOV     ?V0 + 0,#0x2
   \   00005A   78..         MOV     R0,#?V0 + 0
   \   00005C   12....       LCALL   ?PUSH_XSTACK_I_TWO
   \   00005F   7920         MOV     R1,#0x20
   \   000061   7C..         MOV     R4,#SampleApp_epDesc & 0xff
   \   000063   7D..         MOV     R5,#(SampleApp_epDesc >> 8) & 0xff
   \   000065   7A..         MOV     R2,#SampleApp_Flash_DstAddr & 0xff
   \   000067   7B..         MOV     R3,#(SampleApp_Flash_DstAddr >> 8) & 0xff
   \   000069   12....       LCALL   ??AF_DataRequest?relay
   \   00006C   7409         MOV     A,#0x9
   \   00006E   12....       LCALL   ?DEALLOC_XSTACK8
    488            {
    489            }
    490            else
    491            {
    492              // Error occurred in request to send.
    493            }
    494          }
   \   000071   7403         MOV     A,#0x3
   \   000073   02....       LJMP    ?Subroutine0 & 0xFFFF
    495          
    496          /*********************************************************************
    497          *********************************************************************/
    498          

   \                                 In  segment BANKED_CODE, align 1, keep-with-next
    499          void SampleApp_SendPointMessage(void)
   \                     SampleApp_SendPointMessage:
    500          {
   \   000000   74F6         MOV     A,#-0xa
   \   000002   12....       LCALL   ?BANKED_ENTER_XDATA
   \   000005                ; Saved register size: 10
   \   000005                ; Auto size: 5
   \   000005   74FB         MOV     A,#-0x5
   \   000007   12....       LCALL   ?ALLOC_XSTACK8
    501            HalUARTWrite(0, "PointMsg\n", sizeof("PointMsg\n")-1);
   \   00000A                ; Setup parameters for call to function HalUARTWrite
   \   00000A   7C09         MOV     R4,#0x9
   \   00000C   7D00         MOV     R5,#0x0
   \   00000E   7A..         MOV     R2,#`?<Constant "PointMsg\\n">` & 0xff
   \   000010   7B..         MOV     R3,#(`?<Constant "PointMsg\\n">` >> 8) & 0xff
   \   000012   7900         MOV     R1,#0x0
   \   000014   12....       LCALL   ??HalUARTWrite?relay
    502            uint8 T[5];
    503            Temp_test();
   \   000017                ; Setup parameters for call to function Temp_test
   \   000017   12....       LCALL   ??Temp_test?relay
    504            if (temp > 27)
   \   00001A   90....       MOV     DPTR,#temp
   \   00001D   E0           MOVX    A,@DPTR
   \   00001E   C3           CLR     C
   \   00001F   941C         SUBB    A,#0x1c
   \   000021   400A         JC      ??SampleApp_SendPointMessage_0
    505              LED1 = !LED1;
   \   000023   D2F0         SETB    B.0
   \   000025   A290         MOV     C,0x90.0
   \   000027   30F001       JNB     B.0,??SampleApp_SendPointMessage_1
   \   00002A   B3           CPL     C
   \                     ??SampleApp_SendPointMessage_1:
   \   00002B   9290         MOV     0x90.0,C
    506            T[0] = temp / 10 + 48;
   \                     ??SampleApp_SendPointMessage_0:
   \   00002D   75F00A       MOV     B,#0xa
   \   000030   E0           MOVX    A,@DPTR
   \   000031   84           DIV     AB
   \   000032   2430         ADD     A,#0x30
   \   000034   85..82       MOV     DPL,?XSP + 0
   \   000037   85..83       MOV     DPH,?XSP + 1
   \   00003A   F0           MOVX    @DPTR,A
    507            T[1] = temp % 10 + 48;
   \   00003B   90....       MOV     DPTR,#temp
   \   00003E   E0           MOVX    A,@DPTR
   \   00003F   75F00A       MOV     B,#0xa
   \   000042   84           DIV     AB
   \   000043   E5F0         MOV     A,B
   \   000045   2430         ADD     A,#0x30
   \   000047   C0E0         PUSH    A
   \   000049   7401         MOV     A,#0x1
   \   00004B   12....       LCALL   ?XSTACK_DISP0_8
   \   00004E   D0E0         POP     A
   \   000050   F0           MOVX    @DPTR,A
    508            T[2] = ' ';
   \   000051   7402         MOV     A,#0x2
   \   000053   12....       LCALL   ?XSTACK_DISP0_8
   \   000056   7420         MOV     A,#0x20
   \   000058   F0           MOVX    @DPTR,A
    509            T[3] = 'C';
   \   000059   7403         MOV     A,#0x3
   \   00005B   12....       LCALL   ?XSTACK_DISP0_8
   \   00005E   7443         MOV     A,#0x43
   \   000060   F0           MOVX    @DPTR,A
    510            T[4] = '\0';
   \   000061   7404         MOV     A,#0x4
   \   000063   12....       LCALL   ?XSTACK_DISP0_8
   \   000066   E4           CLR     A
   \   000067   F0           MOVX    @DPTR,A
    511            HalUARTWrite(0, "temp=", 5);
   \   000068                ; Setup parameters for call to function HalUARTWrite
   \   000068   7C05         MOV     R4,#0x5
   \   00006A   FD           MOV     R5,A
   \   00006B   7A..         MOV     R2,#`?<Constant "temp=">` & 0xff
   \   00006D   7B..         MOV     R3,#(`?<Constant "temp=">` >> 8) & 0xff
   \   00006F   F9           MOV     R1,A
   \   000070   12....       LCALL   ??HalUARTWrite?relay
    512            HalUARTWrite(0, T, 2);
   \   000073                ; Setup parameters for call to function HalUARTWrite
   \   000073   7C02         MOV     R4,#0x2
   \   000075   7D00         MOV     R5,#0x0
   \   000077   85..82       MOV     DPL,?XSP + 0
   \   00007A   85..83       MOV     DPH,?XSP + 1
   \   00007D   AA82         MOV     R2,DPL
   \   00007F   AB83         MOV     R3,DPH
   \   000081   7900         MOV     R1,#0x0
   \   000083   12....       LCALL   ??HalUARTWrite?relay
    513            HalUARTWrite(0, "\n", 1);
   \   000086                ; Setup parameters for call to function HalUARTWrite
   \   000086   7C01         MOV     R4,#0x1
   \   000088   7D00         MOV     R5,#0x0
   \   00008A   7A..         MOV     R2,#`?<Constant "\\n">` & 0xff
   \   00008C   7B..         MOV     R3,#(`?<Constant "\\n">` >> 8) & 0xff
   \   00008E   7900         MOV     R1,#0x0
   \   000090   12....       LCALL   ??HalUARTWrite?relay
    514            if ( AF_DataRequest( &SampleApp_Point_DstAddr, &SampleApp_epDesc,
    515                                 SAMPLEAPP_POINT_CLUSTERID,
    516                                 5,
    517                                 T,
    518                                 &SampleApp_TransID,
    519                                 AF_DISCV_ROUTE,
    520                                 AF_DEFAULT_RADIUS ) == afStatus_SUCCESS )
   \   000093                ; Setup parameters for call to function AF_DataRequest
   \   000093   75..1E       MOV     ?V0 + 0,#0x1e
   \   000096   78..         MOV     R0,#?V0 + 0
   \   000098   12....       LCALL   ?PUSH_XSTACK_I_ONE
   \   00009B   75....       MOV     ?V0 + 0,#SampleApp_TransID & 0xff
   \   00009E   75....       MOV     ?V0 + 1,#(SampleApp_TransID >> 8) & 0xff
   \   0000A1   78..         MOV     R0,#?V0 + 0
   \   0000A3   12....       LCALL   ?PUSH_XSTACK_I_TWO
   \   0000A6   7403         MOV     A,#0x3
   \   0000A8   12....       LCALL   ?XSTACK_DISP0_8
   \   0000AB   8582..       MOV     ?V0 + 0,DPL
   \   0000AE   8583..       MOV     ?V0 + 1,DPH
   \   0000B1   78..         MOV     R0,#?V0 + 0
   \   0000B3   12....       LCALL   ?PUSH_XSTACK_I_TWO
   \   0000B6   75..05       MOV     ?V0 + 0,#0x5
   \   0000B9   75..00       MOV     ?V0 + 1,#0x0
   \   0000BC   78..         MOV     R0,#?V0 + 0
   \   0000BE   12....       LCALL   ?PUSH_XSTACK_I_TWO
   \   0000C1   75..03       MOV     ?V0 + 0,#0x3
   \   0000C4   78..         MOV     R0,#?V0 + 0
   \   0000C6   12....       LCALL   ?PUSH_XSTACK_I_TWO
   \   0000C9   7920         MOV     R1,#0x20
   \   0000CB   7C..         MOV     R4,#SampleApp_epDesc & 0xff
   \   0000CD   7D..         MOV     R5,#(SampleApp_epDesc >> 8) & 0xff
   \   0000CF   7A..         MOV     R2,#SampleApp_Point_DstAddr & 0xff
   \   0000D1   7B..         MOV     R3,#(SampleApp_Point_DstAddr >> 8) & 0xff
   \   0000D3   12....       LCALL   ??AF_DataRequest?relay
   \   0000D6   7409         MOV     A,#0x9
   \   0000D8   12....       LCALL   ?DEALLOC_XSTACK8
   \   0000DB   E9           MOV     A,R1
   \   0000DC   700A         JNZ     ??SampleApp_SendPointMessage_2
    521            {
    522              HalUARTWrite(0, "PointMsg Success\n", sizeof("PointMsg Success\n")-1);
   \   0000DE                ; Setup parameters for call to function HalUARTWrite
   \   0000DE   7C11         MOV     R4,#0x11
   \   0000E0   7D00         MOV     R5,#0x0
   \   0000E2   7A..         MOV     R2,#`?<Constant "PointMsg Success\\n">` & 0xff
   \   0000E4   7B..         MOV     R3,#(`?<Constant "PointMsg Success\\n">` >> 8) & 0xff
   \   0000E6   8008         SJMP    ??SampleApp_SendPointMessage_3
    523            }
    524            else
    525            {
    526              // Error occurred in request to send.
    527              HalUARTWrite(0, "PointMsg Failed\n", sizeof("PointMsg Failed\n")-1);
   \                     ??SampleApp_SendPointMessage_2:
   \   0000E8                ; Setup parameters for call to function HalUARTWrite
   \   0000E8   7C10         MOV     R4,#0x10
   \   0000EA   7D00         MOV     R5,#0x0
   \   0000EC   7A..         MOV     R2,#`?<Constant "PointMsg Failed\\n">` & 0xff
   \   0000EE   7B..         MOV     R3,#(`?<Constant "PointMsg Failed\\n">` >> 8) & 0xff
   \                     ??SampleApp_SendPointMessage_3:
   \   0000F0   7900         MOV     R1,#0x0
   \   0000F2   12....       LCALL   ??HalUARTWrite?relay
    528            }
    529            
    530          }
   \   0000F5   7405         MOV     A,#0x5
   \   0000F7                REQUIRE ?Subroutine0
   \   0000F7                REQUIRE _A_P1
   \   0000F7                ; // Fall through to label ?Subroutine0

   \                                 In  segment BANK_RELAYS, align 1
   \                     ??SampleApp_Init?relay:
   \   000000   12....       LCALL   ?BDISPATCH
   \   000003   ......       DC24    SampleApp_Init

   \                                 In  segment BANK_RELAYS, align 1
   \                     ??SampleApp_ProcessEvent?relay:
   \   000000   12....       LCALL   ?BDISPATCH
   \   000003   ......       DC24    SampleApp_ProcessEvent

   \                                 In  segment BANK_RELAYS, align 1
   \                     ??SampleApp_HandleKeys?relay:
   \   000000   12....       LCALL   ?BDISPATCH
   \   000003   ......       DC24    SampleApp_HandleKeys

   \                                 In  segment BANK_RELAYS, align 1
   \                     ??SampleApp_MessageMSGCB?relay:
   \   000000   12....       LCALL   ?BDISPATCH
   \   000003   ......       DC24    SampleApp_MessageMSGCB

   \                                 In  segment BANK_RELAYS, align 1
   \                     ??SampleApp_SendPeriodicMessage?relay:
   \   000000   12....       LCALL   ?BDISPATCH
   \   000003   ......       DC24    SampleApp_SendPeriodicMessage

   \                                 In  segment BANK_RELAYS, align 1
   \                     ??SampleApp_SendFlashMessage?relay:
   \   000000   12....       LCALL   ?BDISPATCH
   \   000003   ......       DC24    SampleApp_SendFlashMessage

   \                                 In  segment BANK_RELAYS, align 1
   \                     ??SampleApp_SendPointMessage?relay:
   \   000000   12....       LCALL   ?BDISPATCH
   \   000003   ......       DC24    SampleApp_SendPointMessage

   \                                 In  segment XDATA_ROM_C, align 1
   \                     `?<Constant "Ep Init\\n">`:
   \   000000   45702049     DB "Ep Init\012"
   \            6E69740A
   \            00      

   \                                 In  segment XDATA_ROM_C, align 1
   \                     `?<Constant "Group 1">`:
   \   000000   47726F75     DB "Group 1"
   \            70203100

   \                                 In  segment XDATA_ROM_C, align 1
   \                     `?<Constant "Key Changed\\n">`:
   \   000000   4B657920     DB "Key Changed\012"
   \            4368616E
   \            6765640A
   \            00      

   \                                 In  segment XDATA_ROM_C, align 1
   \                     `?<Constant "Data Come\\n">`:
   \   000000   44617461     DB "Data Come\012"
   \            20436F6D
   \            650A00  

   \                                 In  segment XDATA_ROM_C, align 1
   \                     `?<Constant "Out\\n">`:
   \   000000   4F75740A     DB "Out\012"
   \            00      

   \                                 In  segment XDATA_ROM_C, align 1
   \                     `?<Constant "In Handlekey\\n">`:
   \   000000   496E2048     DB "In Handlekey\012"
   \            616E646C
   \            656B6579
   \            0A00    

   \                                 In  segment XDATA_ROM_C, align 1
   \                     `?<Constant "In MSGCB\\n">`:
   \   000000   496E204D     DB "In MSGCB\012"
   \            53474342
   \            0A00    

   \                                 In  segment XDATA_ROM_C, align 1
   \                     `?<Constant "From Ep\\n">`:
   \   000000   46726F6D     DB "From Ep\012"
   \            2045700A
   \            00      

   \                                 In  segment XDATA_ROM_C, align 1
   \                     `?<Constant "In Ep SampleApp_SendP...">`:
   \   000000   496E2045     DB "In Ep SampleApp_SendPeriodMessage : Succeed\012"
   \            70205361
   \            6D706C65
   \            4170705F
   \            53656E64
   \            50657269
   \            6F644D65
   \            73736167
   \            65203A20
   \            53756363
   \            6565640A
   \            00      

   \                                 In  segment XDATA_ROM_C, align 1
   \                     `?<Constant "In Ep SampleApp_SendP...">_1`:
   \   000000   496E2045     DB "In Ep SampleApp_SendPeriodMessage : Failed\012"
   \            70205361
   \            6D706C65
   \            4170705F
   \            53656E64
   \            50657269
   \            6F644D65
   \            73736167
   \            65203A20
   \            4661696C
   \            65640A00

   \                                 In  segment XDATA_ROM_C, align 1
   \                     `?<Constant "PointMsg\\n">`:
   \   000000   506F696E     DB "PointMsg\012"
   \            744D7367
   \            0A00    

   \                                 In  segment XDATA_ROM_C, align 1
   \                     `?<Constant "temp=">`:
   \   000000   74656D70     DB "temp="
   \            3D00    

   \                                 In  segment XDATA_ROM_C, align 1
   \                     `?<Constant "\\n">`:
   \   000000   0A00         DB "\012"

   \                                 In  segment XDATA_ROM_C, align 1
   \                     `?<Constant "PointMsg Success\\n">`:
   \   000000   506F696E     DB "PointMsg Success\012"
   \            744D7367
   \            20537563
   \            63657373
   \            0A00    

   \                                 In  segment XDATA_ROM_C, align 1
   \                     `?<Constant "PointMsg Failed\\n">`:
   \   000000   506F696E     DB "PointMsg Failed\012"
   \            744D7367
   \            20466169
   \            6C65640A
   \            00      

   Maximum stack usage in bytes:

     Function                       ISTACK PSTACK XSTACK
     --------                       ------ ------ ------
     SampleApp_HandleKeys               0      0     22
       -> SampleApp_SendFlashMessage
                                        0      0     20
       -> aps_FindGroup                 0      0     20
       -> aps_RemoveGroup               0      0     20
       -> aps_AddGroup                  0      0     20
       -> HalUARTWrite                  0      0     20
       -> HalLedBlink                   0      0     20
     SampleApp_Init                     0      0     14
       -> MT_UartInit                   0      0     22
       -> MT_UartRegisterTaskID         0      0     22
       -> HalUARTWrite                  0      0     22
       -> afRegister                    0      0     22
       -> RegisterForKeys               0      0     22
       -> osal_memcpy                   0      0     28
       -> aps_AddGroup                  0      0     22
     SampleApp_MessageMSGCB             0      0     22
       -> HalUARTWrite                  0      0     20
       -> HalLedBlink                   0      0     20
     SampleApp_ProcessEvent             0      0     12
       -> osal_msg_receive              0      0     24
       -> HalUARTWrite                  0      0     24
       -> osal_msg_deallocate           0      0     24
       -> osal_msg_receive              0      0     24
       -> HalUARTWrite                  0      0     24
       -> SampleApp_HandleKeys          0      0     24
       -> HalUARTWrite                  0      0     24
       -> SampleApp_MessageMSGCB        0      0     24
       -> osal_start_timerEx            0      0     24
       -> SampleApp_SendPointMessage
                                        0      0     24
       -> osal_rand                     0      0     24
       -> osal_start_timerEx            0      0     24
     SampleApp_SendFlashMessage         1      0     32
       -> AF_DataRequest                0      0     44
     SampleApp_SendPeriodicMessage      2      0     28
       -> AF_DataRequest                0      0     56
       -> HalUARTWrite                  0      0     38
       -> HalUARTWrite                  0      0     38
       -> HalUARTWrite                  0      0     38
     SampleApp_SendPointMessage         1      0     36
       -> HalUARTWrite                  0      0     30
       -> Temp_test                     0      0     30
       -> HalUARTWrite                  0      0     30
       -> HalUARTWrite                  0      0     30
       -> HalUARTWrite                  0      0     30
       -> AF_DataRequest                0      0     48
       -> HalUARTWrite                  0      0     30
       -> HalUARTWrite                  0      0     30


   Segment part sizes:

     Function/Label                           Bytes
     --------------                           -----
     _A_P1                                       1
     P0SEL                                       1
     P1INP                                       1
     P1DIR                                       1
     SampleApp_ClusterList                       6
     SampleApp_SimpleDesc                       12
     SampleApp_epDesc                            6
     SampleApp_TaskID                            1
     SampleApp_NwkState                          1
     SampleApp_TransID                           1
     SampleApp_Periodic_DstAddr                 12
     SampleApp_Flash_DstAddr                    12
     SampleApp_Point_DstAddr                    12
     SampleApp_Group                            18
     SampleAppPeriodicCounter                    1
     SampleAppFlashCounter                       1
     SampleApp_Init                            198
     SampleApp_ProcessEvent                    235
     SampleApp_HandleKeys                       93
     ??Subroutine1_0                             5
     SampleApp_MessageMSGCB                    111
     SampleApp_SendPeriodicMessage             153
     ?Subroutine0                                3
     SampleApp_SendFlashMessage                118
     SampleApp_SendPointMessage                247
     ??SampleApp_Init?relay                      6
     ??SampleApp_ProcessEvent?relay              6
     ??SampleApp_HandleKeys?relay                6
     ??SampleApp_MessageMSGCB?relay              6
     ??SampleApp_SendPeriodicMessage?relay       6
     ??SampleApp_SendFlashMessage?relay          6
     ??SampleApp_SendPointMessage?relay          6
     ?<Constant "Ep Init\n">                     9
     ?<Constant "Group 1">                       8
     ?<Constant "Key Changed\n">                13
     ?<Constant "Data Come\n">                  11
     ?<Constant "Out\n">                         5
     ?<Constant "In Handlekey\n">               14
     ?<Constant "In MSGCB\n">                   10
     ?<Constant "From Ep\n">                     9
     ?<Constant "In Ep SampleApp_SendP...">     45
     ?<Constant "In Ep SampleApp_SendP...">_1   44
     ?<Constant "PointMsg\n">                   10
     ?<Constant "temp=">                         6
     ?<Constant "\n">                            2
     ?<Constant "PointMsg Success\n">           18
     ?<Constant "PointMsg Failed\n">            17

 
 1 163 bytes in segment BANKED_CODE
    42 bytes in segment BANK_RELAYS
     4 bytes in segment SFR_AN
   239 bytes in segment XDATA_ROM_C
    65 bytes in segment XDATA_Z
 
 1 205 bytes of CODE  memory
   239 bytes of CONST memory
     0 bytes of DATA  memory (+ 4 bytes shared)
    65 bytes of XDATA memory

Errors: none
Warnings: none
