###############################################################################
#                                                                             #
# IAR C/C++ Compiler V8.10.1.10194/W32 for 8051         10/Oct/2014  23:49:38 #
# Copyright 2004-2011 IAR Systems AB.                                         #
#                                                                             #
#    Core               =  plain                                              #
#    Code model         =  banked                                             #
#    Data model         =  large                                              #
#    Calling convention =  xdata reentrant                                    #
#    Constant location  =  data_rom                                           #
#    Dptr setup         =  1,16                                               #
#    Source file        =  D:\ZStack-CC2530-2.5.1a\Projects\zstack\Samples\Ep #
#                          _Master\Source\SampleApp.c                         #
#    Command line       =  -f D:\ZStack-CC2530-2.5.1a\Projects\zstack\Samples #
#                          \Ep_Master\CC2530DB\..\..\..\Tools\CC2530DB\f8wEnd #
#                          ev.cfg (-DCPU32MHZ -DROOT=__near_func              #
#                          -DMAC_CFG_TX_DATA_MAX=3 -DMAC_CFG_TX_MAX=6         #
#                          -DMAC_CFG_RX_MAX=3) -f D:\ZStack-CC2530-2.5.1a\Pro #
#                          jects\zstack\Samples\Ep_Master\CC2530DB\..\..\..\T #
#                          ools\CC2530DB\f8wConfig.cfg (-DZIGBEEPRO           #
#                          -DSECURE=0 -DZG_SECURE_DYNAMIC=0 -DREFLECTOR       #
#                          -DDEFAULT_CHANLIST=0x00000800                      #
#                          -DZDAPP_CONFIG_PAN_ID=0xFFFF                       #
#                          -DNWK_START_DELAY=100 -DEXTENDED_JOINING_RANDOM_MA #
#                          SK=0x007F -DBEACON_REQUEST_DELAY=100               #
#                          -DBEACON_REQ_DELAY_MASK=0x00FF                     #
#                          -DLINK_STATUS_JITTER_MASK=0x007F                   #
#                          -DROUTE_EXPIRY_TIME=30 -DAPSC_ACK_WAIT_DURATION_PO #
#                          LLED=3000 -DNWK_INDIRECT_MSG_TIMEOUT=7             #
#                          -DMAX_RREQ_ENTRIES=8 -DAPSC_MAX_FRAME_RETRIES=3    #
#                          -DNWK_MAX_DATA_RETRIES=2                           #
#                          -DMAX_POLL_FAILURE_RETRIES=2 -DMAX_BCAST=9         #
#                          -DAPS_MAX_GROUPS=16 -DMAX_RTG_ENTRIES=40           #
#                          -DNWK_MAX_BINDING_ENTRIES=4                        #
#                          -DMAX_BINDING_CLUSTER_IDS=4 "-DDEFAULT_KEY={0x01,  #
#                          0x03, 0x05, 0x07, 0x09, 0x0B, 0x0D, 0x0F, 0x00,    #
#                          0x02, 0x04, 0x06, 0x08, 0x0A, 0x0C, 0x0D}"         #
#                          -DMAC_MAX_FRAME_SIZE=116                           #
#                          -DZDNWKMGR_MIN_TRANSMISSIONS=20 "-DCONST=const     #
#                          __code" -DGENERIC=__generic                        #
#                          -DRFD_RCVC_ALWAYS_ON=FALSE -DPOLL_RATE=1000        #
#                          -DQUEUED_POLL_RATE=100 -DRESPONSE_POLL_RATE=100)   #
#                          -DREJOIN_POLL_RATE=440 D:\ZStack-CC2530-2.5.1a\Pro #
#                          jects\zstack\Samples\Ep_Master\Source\SampleApp.c  #
#                          -D xNWK_AUTO_POLL -D ZTOOL_P1 -D xMT_TASK -D       #
#                          xMT_SYS_FUNC -D xMT_ZDO_FUNC -D                    #
#                          xLCD_SUPPORTED=DEBUG -lC                           #
#                          D:\ZStack-CC2530-2.5.1a\Projects\zstack\Samples\Ep #
#                          _Master\CC2530DB\EndDeviceEB\List\ -lA             #
#                          D:\ZStack-CC2530-2.5.1a\Projects\zstack\Samples\Ep #
#                          _Master\CC2530DB\EndDeviceEB\List\                 #
#                          --diag_suppress Pe001,Pa010 -o                     #
#                          D:\ZStack-CC2530-2.5.1a\Projects\zstack\Samples\Ep #
#                          _Master\CC2530DB\EndDeviceEB\Obj\ -e               #
#                          --no_code_motion --debug --core=plain --dptr=16,1  #
#                          --data_model=large --code_model=banked             #
#                          --calling_convention=xdata_reentrant               #
#                          --place_constants=data_rom --nr_virtual_regs 16    #
#                          -I D:\ZStack-CC2530-2.5.1a\Projects\zstack\Samples #
#                          \Ep_Master\CC2530DB\ -I D:\ZStack-CC2530-2.5.1a\Pr #
#                          ojects\zstack\Samples\Ep_Master\CC2530DB\..\Source #
#                          \ -I D:\ZStack-CC2530-2.5.1a\Projects\zstack\Sampl #
#                          es\Ep_Master\CC2530DB\..\..\..\ZMain\TI2530DB\ -I  #
#                          D:\ZStack-CC2530-2.5.1a\Projects\zstack\Samples\Ep #
#                          _Master\CC2530DB\..\..\..\..\..\Components\hal\inc #
#                          lude\ -I D:\ZStack-CC2530-2.5.1a\Projects\zstack\S #
#                          amples\Ep_Master\CC2530DB\..\..\..\..\..\Component #
#                          s\hal\target\CC2530EB\ -I                          #
#                          D:\ZStack-CC2530-2.5.1a\Projects\zstack\Samples\Ep #
#                          _Master\CC2530DB\..\..\..\..\..\Components\mac\inc #
#                          lude\ -I D:\ZStack-CC2530-2.5.1a\Projects\zstack\S #
#                          amples\Ep_Master\CC2530DB\..\..\..\..\..\Component #
#                          s\mac\high_level\ -I D:\ZStack-CC2530-2.5.1a\Proje #
#                          cts\zstack\Samples\Ep_Master\CC2530DB\..\..\..\..\ #
#                          ..\Components\mac\low_level\srf04\ -I              #
#                          D:\ZStack-CC2530-2.5.1a\Projects\zstack\Samples\Ep #
#                          _Master\CC2530DB\..\..\..\..\..\Components\mac\low #
#                          _level\srf04\single_chip\ -I                       #
#                          D:\ZStack-CC2530-2.5.1a\Projects\zstack\Samples\Ep #
#                          _Master\CC2530DB\..\..\..\..\..\Components\mt\ -I  #
#                          D:\ZStack-CC2530-2.5.1a\Projects\zstack\Samples\Ep #
#                          _Master\CC2530DB\..\..\..\..\..\Components\osal\in #
#                          clude\ -I D:\ZStack-CC2530-2.5.1a\Projects\zstack\ #
#                          Samples\Ep_Master\CC2530DB\..\..\..\..\..\Componen #
#                          ts\services\saddr\ -I D:\ZStack-CC2530-2.5.1a\Proj #
#                          ects\zstack\Samples\Ep_Master\CC2530DB\..\..\..\.. #
#                          \..\Components\services\sdata\ -I                  #
#                          D:\ZStack-CC2530-2.5.1a\Projects\zstack\Samples\Ep #
#                          _Master\CC2530DB\..\..\..\..\..\Components\stack\a #
#                          f\ -I D:\ZStack-CC2530-2.5.1a\Projects\zstack\Samp #
#                          les\Ep_Master\CC2530DB\..\..\..\..\..\Components\s #
#                          tack\nwk\ -I D:\ZStack-CC2530-2.5.1a\Projects\zsta #
#                          ck\Samples\Ep_Master\CC2530DB\..\..\..\..\..\Compo #
#                          nents\stack\sapi\ -I D:\ZStack-CC2530-2.5.1a\Proje #
#                          cts\zstack\Samples\Ep_Master\CC2530DB\..\..\..\..\ #
#                          ..\Components\stack\sec\ -I                        #
#                          D:\ZStack-CC2530-2.5.1a\Projects\zstack\Samples\Ep #
#                          _Master\CC2530DB\..\..\..\..\..\Components\stack\s #
#                          ys\ -I D:\ZStack-CC2530-2.5.1a\Projects\zstack\Sam #
#                          ples\Ep_Master\CC2530DB\..\..\..\..\..\Components\ #
#                          stack\zdo\ -I D:\ZStack-CC2530-2.5.1a\Projects\zst #
#                          ack\Samples\Ep_Master\CC2530DB\..\..\..\..\..\Comp #
#                          onents\zmac\ -I D:\ZStack-CC2530-2.5.1a\Projects\z #
#                          stack\Samples\Ep_Master\CC2530DB\..\..\..\..\..\Co #
#                          mponents\zmac\f8w\ -Ohz --require_prototypes       #
#    List file          =  D:\ZStack-CC2530-2.5.1a\Projects\zstack\Samples\Ep #
#                          _Master\CC2530DB\EndDeviceEB\List\SampleApp.lst    #
#    Object file        =  D:\ZStack-CC2530-2.5.1a\Projects\zstack\Samples\Ep #
#                          _Master\CC2530DB\EndDeviceEB\Obj\SampleApp.r51     #
#                                                                             #
#                                                                             #
###############################################################################

D:\ZStack-CC2530-2.5.1a\Projects\zstack\Samples\Ep_Master\Source\SampleApp.c
      1          /**************************************************************************************************
      2            Filename:       SampleApp.c
      3            Revised:        $Date: 2009-03-18 15:56:27 -0700 (Wed, 18 Mar 2009) $
      4            Revision:       $Revision: 19453 $
      5          
      6            Des ,cription:    Sample Application (no Profile).
      7          
      8          
      9            Copyright 2007 Texas Instruments Incorporated. All rights reserved.
     10          
     11            IMPORTANT: Your use of this Software is limited to those specific rights
     12            granted under the terms of a software license agreement between the user
     13            who downloaded the software, his/her employer (which must be your employer)
     14            and Texas Instruments Incorporated (the "License").  You may not use this
     15            Software unless you agree to abide by the terms of the License. The License
     16            limits your use, and you acknowledge, that the Software may not be modified,
     17            copied or distributed unless embedded on a Texas Instruments microcontroller
     18            or used solely and exclusively in conjunction with a Texas Instruments radio
     19            frequency transceiver, which is integrated into your product.  Other than for
     20            the foregoing purpose, you may not use, reproduce, copy, prepare derivative
     21            works of, modify, distribute, perform, display or sell this Software and/or
     22            its documentation for any purpose.
     23          
     24            YOU FURTHER ACKNOWLEDGE AND AGREE THAT THE SOFTWARE AND DOCUMENTATION ARE
     25            PROVIDED “AS IS?WITHOUT WARRANTY OF ANY KIND, EITHER EXPRESS OR IMPLIED,
     26            INCLUDING WITHOUT LIMITATION, ANY WARRANTY OF MERCHANTABILITY, TITLE,
     27            NON-INFRINGEMENT AND FITNESS FOR A PARTICULAR PURPOSE. IN NO EVENT SHALL
     28            TEXAS INSTRUMENTS OR ITS LICENSORS BE LIABLE OR OBLIGATED UNDER CONTRACT,
     29            NEGLIGENCE, STRICT LIABILITY, CONTRIBUTION, BREACH OF WARRANTY, OR OTHER
     30            LEGAL EQUITABLE THEORY ANY DIRECT OR INDIRECT DAMAGES OR EXPENSES
     31            INCLUDING BUT NOT LIMITED TO ANY INCIDENTAL, SPECIAL, INDIRECT, PUNITIVE
     32            OR CONSEQUENTIAL DAMAGES, LOST PROFITS OR LOST DATA, COST OF PROCUREMENT
     33            OF SUBSTITUTE GOODS, TECHNOLOGY, SERVICES, OR ANY CLAIMS BY THIRD PARTIES
     34            (INCLUDING BUT NOT LIMITED TO ANY DEFENSE THEREOF), OR OTHER SIMILAR COSTS.
     35          
     36            Should you have any questions regarding your right to use this Software,
     37            contact Texas Instruments Incorporated at www.TI.com.
     38          **************************************************************************************************/
     39          
     40          /*********************************************************************
     41            This application isn't intended to do anything useful, it is
     42            intended to be a simple example of an application's structure.
     43          
     44            This application sends it's messages either as broadcast or
     45            broadcast filtered group messages.  The other (more normal)
     46            message addressing is unicast.  Most of the other sample
     47            applications are written to support the unicast message model.
     48          
     49            Key control:
     50              SW1:  Sends a flash command to all devices in Group 1.
     51              SW2:  Adds/Removes (toggles) this device in and out
     52                    of Group 1.  This will enable and disable the
     53                    reception of the flash command.
     54          *********************************************************************/
     55          #define uchar unsigned char
     56          #define uint unsigned int
     57          #define LED1 P1_0
     58          /*********************************************************************
     59           * INCLUDES
     60           */
     61          #include "OSAL.h"
     62          #include "ZGlobals.h"
     63          #include "AF.h"
     64          #include "aps_groups.h"
     65          #include "ZDApp.h"
     66          
     67          #include "SampleApp.h"
     68          #include "SampleAppHw.h"
     69          
     70          #include "OnBoard.h"

   \                                 In  segment SFR_AN, at 0x8f
   \   unsigned char volatile __sfr P0INP
   \                     P0INP:
   \   000000                DS 1

   \                                 In  segment SFR_AN, at 0xb4
   \   unsigned char volatile __sfr ADCCON1
   \                     ADCCON1:
   \   000000                DS 1

   \                                 In  segment SFR_AN, at 0xb6
   \   unsigned char volatile __sfr ADCCON3
   \                     ADCCON3:
   \   000000                DS 1

   \                                 In  segment SFR_AN, at 0xba
   \   unsigned char volatile __sfr ADCL
   \                     ADCL:
   \   000000                DS 1

   \                                 In  segment SFR_AN, at 0xbb
   \   unsigned char volatile __sfr ADCH
   \                     ADCH:
   \   000000                DS 1

   \                                 In  segment SFR_AN, at 0xfd
   \   unsigned char volatile __sfr P0DIR
   \                     P0DIR:
   \   000000                DS 1
     71          
     72          /* HAL */
     73          #include "hal_lcd.h"
     74          #include "hal_led.h"
     75          #include "hal_key.h"
     76          #include "MT_UART.h"
     77          #include "string.h"
     78          #include "ds18b20.h"
     79          #include "NLMEDE.h"
     80          
     81          /*********************************************************************
     82           * MACROS
     83           */
     84          
     85          /*********************************************************************
     86           * CONSTANTS
     87           */
     88          
     89          /*********************************************************************
     90           * TYPEDEFS
     91           */
     92          
     93          /*********************************************************************
     94           * GLOBAL VARIABLES
     95           */
     96          
     97          // This list should be filled with Application specific Cluster IDs.

   \                                 In  segment XDATA_ROM_C, align 1
     98          const cId_t SampleApp_ClusterList[SAMPLEAPP_MAX_CLUSTERS] =
   \                     SampleApp_ClusterList:
   \   000000   0100         DW 1
   \   000002   0200         DW 2
   \   000004   0300         DW 3
     99          {
    100            SAMPLEAPP_PERIODIC_CLUSTERID,
    101            SAMPLEAPP_FLASH_CLUSTERID,
    102            SAMPLEAPP_POINT_CLUSTERID
    103          };
    104          

   \                                 In  segment XDATA_ROM_C, align 1
    105          const SimpleDescriptionFormat_t SampleApp_SimpleDesc =
   \                     SampleApp_SimpleDesc:
   \   000000   14           DB 20
   \   000001   080F         DW 3848
   \   000003   0100         DW 1
   \   000005   00           DB 0
   \   000006   03           DB 3
   \   000007   ....         DW SampleApp_ClusterList
   \   000009   03           DB 3
   \   00000A   ....         DW SampleApp_ClusterList
    106          {
    107            SAMPLEAPP_ENDPOINT,              //  int Endpoint;
    108            SAMPLEAPP_PROFID,                //  uint16 AppProfId[2];
    109            SAMPLEAPP_DEVICEID,              //  uint16 AppDeviceId[2];
    110            SAMPLEAPP_DEVICE_VERSION,        //  int   AppDevVer:4;
    111            SAMPLEAPP_FLAGS,                 //  int   AppFlags:4;
    112            SAMPLEAPP_MAX_CLUSTERS,          //  uint8  AppNumInClusters;
    113            (cId_t *)SampleApp_ClusterList,  //  uint8 *pAppInClusterList;
    114            SAMPLEAPP_MAX_CLUSTERS,          //  uint8  AppNumInClusters;
    115            (cId_t *)SampleApp_ClusterList   //  uint8 *pAppInClusterList;
    116          };
    117          
    118          // This is the Endpoint/Interface description.  It is defined here, but
    119          // filled-in in SampleApp_Init().  Another way to go would be to fill
    120          // in the structure here and make it a "const" (in code space).  The
    121          // way it's defined in this sample app it is define in RAM.

   \                                 In  segment XDATA_Z, align 1, keep-with-next
    122          endPointDesc_t SampleApp_epDesc;
   \                     SampleApp_epDesc:
   \   000000                DS 6
   \   000006                REQUIRE __INIT_XDATA_Z
    123          
    124          /*********************************************************************
    125           * EXTERNAL VARIABLES
    126           */
    127          
    128          /*********************************************************************
    129           * EXTERNAL FUNCTIONS
    130           */
    131          
    132          /*********************************************************************
    133           * LOCAL VARIABLES
    134           */

   \                                 In  segment XDATA_Z, align 1, keep-with-next
    135          uint8 SampleApp_TaskID;   // Task ID for internal task/event processing
   \                     SampleApp_TaskID:
   \   000000                DS 1
   \   000001                REQUIRE __INIT_XDATA_Z
    136                                    // This variable will be received when
    137                                    // SampleApp_Init() is called.

   \                                 In  segment XDATA_Z, align 1, keep-with-next
    138          devStates_t SampleApp_NwkState;
   \                     SampleApp_NwkState:
   \   000000                DS 1
   \   000001                REQUIRE __INIT_XDATA_Z
    139          

   \                                 In  segment XDATA_Z, align 1, keep-with-next
    140          uint8 SampleApp_TransID;  // This is the unique message ID (counter)
   \                     SampleApp_TransID:
   \   000000                DS 1
   \   000001                REQUIRE __INIT_XDATA_Z
    141          

   \                                 In  segment XDATA_Z, align 1, keep-with-next
    142          afAddrType_t SampleApp_Periodic_DstAddr;
   \                     SampleApp_Periodic_DstAddr:
   \   000000                DS 12
   \   00000C                REQUIRE __INIT_XDATA_Z

   \                                 In  segment XDATA_Z, align 1, keep-with-next
    143          afAddrType_t SampleApp_Flash_DstAddr;
   \                     SampleApp_Flash_DstAddr:
   \   000000                DS 12
   \   00000C                REQUIRE __INIT_XDATA_Z
    144          

   \                                 In  segment XDATA_Z, align 1, keep-with-next
    145          afAddrType_t SampleApp_Point_DstAddr;
   \                     SampleApp_Point_DstAddr:
   \   000000                DS 12
   \   00000C                REQUIRE __INIT_XDATA_Z
    146          

   \                                 In  segment XDATA_Z, align 1, keep-with-next
    147          aps_Group_t SampleApp_Group;
   \                     SampleApp_Group:
   \   000000                DS 18
   \   000012                REQUIRE __INIT_XDATA_Z
    148          

   \                                 In  segment XDATA_Z, align 1, keep-with-next
    149          uint8 SampleAppPeriodicCounter = 0;
   \                     SampleAppPeriodicCounter:
   \   000000                DS 1
   \   000001                REQUIRE __INIT_XDATA_Z

   \                                 In  segment XDATA_Z, align 1, keep-with-next
    150          uint8 SampleAppFlashCounter = 0;
   \                     SampleAppFlashCounter:
   \   000000                DS 1
   \   000001                REQUIRE __INIT_XDATA_Z
    151          
    152          /*********************************************************************
    153           * LOCAL FUNCTIONS
    154           */
    155          void SampleApp_HandleKeys( uint8 shift, uint8 keys );
    156          void SampleApp_MessageMSGCB( afIncomingMSGPacket_t *pckt );
    157          void SampleApp_SendPeriodicMessage( void );
    158          void SampleApp_SendFlashMessage( uint16 flashTime );
    159          void SampleApp_SendPointMessage(void);
    160          
    161          /*********************************************************************
    162           * NETWORK LAYER CALLBACKS
    163           */
    164          
    165          /*********************************************************************
    166           * PUBLIC FUNCTIONS
    167           */
    168          
    169          // My Init
    170          /*********************************************************************
    171           * @fn      SampleApp_Init
    172           *
    173           * @brief   Initialization function for the Generic App Task.
    174           *          This is called during initialization and should contain
    175           *          any application specific initialization (ie. hardware
    176           *          initialization/setup, table initialization, power up
    177           *          notificaiton ... ).
    178           *
    179           * @param   task_id - the ID assigned by OSAL.  This ID should be
    180           *                    used to send messages and set timers.
    181           *
    182           * @return  none
    183           */

   \                                 In  segment BANKED_CODE, align 1, keep-with-next
    184          void SampleApp_Init( uint8 task_id )
   \                     SampleApp_Init:
    185          {
   \   000000   74F5         MOV     A,#-0xb
   \   000002   12....       LCALL   ?BANKED_ENTER_XDATA
   \   000005                ; Saved register size: 11
   \   000005                ; Auto size: 0
   \   000005   E9           MOV     A,R1
   \   000006   FE           MOV     R6,A
    186            SampleApp_TaskID = task_id;
   \   000007   90....       MOV     DPTR,#SampleApp_TaskID
   \   00000A   F0           MOVX    @DPTR,A
    187            SampleApp_NwkState = DEV_INIT;
   \   00000B   90....       MOV     DPTR,#SampleApp_NwkState
   \   00000E   7401         MOV     A,#0x1
   \   000010   F0           MOVX    @DPTR,A
    188            SampleApp_TransID = 0;
   \   000011   90....       MOV     DPTR,#SampleApp_TransID
   \   000014   E4           CLR     A
   \   000015   F0           MOVX    @DPTR,A
    189            
    190            MT_UartInit();
   \   000016                ; Setup parameters for call to function MT_UartInit
   \   000016   12....       LCALL   ??MT_UartInit?relay
    191            MT_UartRegisterTaskID(task_id);
   \   000019                ; Setup parameters for call to function MT_UartRegisterTaskID
   \   000019   EE           MOV     A,R6
   \   00001A   F9           MOV     R1,A
   \   00001B   12....       LCALL   ??MT_UartRegisterTaskID?relay
    192            HalUARTWrite(0, "Ep Init\n", sizeof("Ep Init\n")-1);
   \   00001E                ; Setup parameters for call to function HalUARTWrite
   \   00001E   7C08         MOV     R4,#0x8
   \   000020   7D00         MOV     R5,#0x0
   \   000022   7A..         MOV     R2,#`?<Constant "Ep Init\\n">` & 0xff
   \   000024   7B..         MOV     R3,#(`?<Constant "Ep Init\\n">` >> 8) & 0xff
   \   000026   7900         MOV     R1,#0x0
   \   000028   12....       LCALL   ??HalUARTWrite?relay
    193            
    194            // Device hardware initialization can be added here or in main() (Zmain.c).
    195            // If the hardware is application specific - add it here.
    196            // If the hardware is other parts of the device add it in main().
    197          
    198           #if defined ( BUILD_ALL_DEVICES )
    199            // The "Demo" target is setup to have BUILD_ALL_DEVICES and HOLD_AUTO_START
    200            // We are looking at a jumper (defined in SampleAppHw.c) to be jumpered
    201            // together - if they are - we will start up a coordinator. Otherwise,
    202            // the device will start as a router.
    203            if ( readCoordinatorJumper() )
    204              zgDeviceLogicalType = ZG_DEVICETYPE_COORDINATOR;
    205            else
    206              zgDeviceLogicalType = ZG_DEVICETYPE_ROUTER;
    207          #endif // BUILD_ALL_DEVICES
    208          
    209          #if defined ( HOLD_AUTO_START )
    210            // HOLD_AUTO_START is a compile option that will surpress ZDApp
    211            //  from starting the device and wait for the application to
    212            //  start the device.
    213            ZDOInitDevice(0);
    214          #endif
    215          
    216            // Setup for the periodic message's destination address
    217            // Broadcast to everyone
    218            SampleApp_Periodic_DstAddr.addrMode = (afAddrMode_t)AddrBroadcast;
   \   00002B   90....       MOV     DPTR,#SampleApp_Periodic_DstAddr + 8
   \   00002E   740F         MOV     A,#0xf
   \   000030   F0           MOVX    @DPTR,A
    219            SampleApp_Periodic_DstAddr.endPoint = SAMPLEAPP_ENDPOINT;
   \   000031   A3           INC     DPTR
   \   000032   7414         MOV     A,#0x14
   \   000034   F0           MOVX    @DPTR,A
    220            SampleApp_Periodic_DstAddr.addr.shortAddr = 0xFFFF;
   \   000035   90....       MOV     DPTR,#SampleApp_Periodic_DstAddr
   \   000038   74FF         MOV     A,#-0x1
   \   00003A   F0           MOVX    @DPTR,A
   \   00003B   A3           INC     DPTR
   \   00003C   F0           MOVX    @DPTR,A
    221          
    222            // Setup for the flash command's destination address - Group 1
    223            SampleApp_Flash_DstAddr.addrMode = (afAddrMode_t)afAddrGroup;
   \   00003D   90....       MOV     DPTR,#SampleApp_Flash_DstAddr + 8
   \   000040   7401         MOV     A,#0x1
   \   000042   F0           MOVX    @DPTR,A
    224            SampleApp_Flash_DstAddr.endPoint = SAMPLEAPP_ENDPOINT;
   \   000043   A3           INC     DPTR
   \   000044   7414         MOV     A,#0x14
   \   000046   F0           MOVX    @DPTR,A
    225            SampleApp_Flash_DstAddr.addr.shortAddr = SAMPLEAPP_FLASH_GROUP;
   \   000047   90....       MOV     DPTR,#SampleApp_Flash_DstAddr
   \   00004A   7401         MOV     A,#0x1
   \   00004C   F0           MOVX    @DPTR,A
   \   00004D   A3           INC     DPTR
   \   00004E   E4           CLR     A
   \   00004F   F0           MOVX    @DPTR,A
    226            
    227            SampleApp_Point_DstAddr.addrMode = (afAddrMode_t)afAddr16Bit;
   \   000050   90....       MOV     DPTR,#SampleApp_Point_DstAddr + 8
   \   000053   7402         MOV     A,#0x2
   \   000055   F0           MOVX    @DPTR,A
    228            SampleApp_Point_DstAddr.endPoint = SAMPLEAPP_ENDPOINT;
   \   000056   A3           INC     DPTR
   \   000057   7414         MOV     A,#0x14
   \   000059   F0           MOVX    @DPTR,A
    229            SampleApp_Point_DstAddr.addr.shortAddr = 0x00;
   \   00005A   90....       MOV     DPTR,#SampleApp_Point_DstAddr
   \   00005D   E4           CLR     A
   \   00005E   F0           MOVX    @DPTR,A
   \   00005F   A3           INC     DPTR
   \   000060   F0           MOVX    @DPTR,A
    230          
    231            // Fill out the endpoint description.
    232            SampleApp_epDesc.endPoint = SAMPLEAPP_ENDPOINT;
   \   000061   90....       MOV     DPTR,#SampleApp_epDesc
   \   000064   7414         MOV     A,#0x14
   \   000066   F0           MOVX    @DPTR,A
    233            SampleApp_epDesc.task_id = &SampleApp_TaskID;
   \   000067   A3           INC     DPTR
   \   000068   74..         MOV     A,#SampleApp_TaskID & 0xff
   \   00006A   F0           MOVX    @DPTR,A
   \   00006B   A3           INC     DPTR
   \   00006C   74..         MOV     A,#(SampleApp_TaskID >> 8) & 0xff
   \   00006E   F0           MOVX    @DPTR,A
    234            SampleApp_epDesc.simpleDesc
    235                      = (SimpleDescriptionFormat_t *)&SampleApp_SimpleDesc;
   \   00006F   A3           INC     DPTR
   \   000070   74..         MOV     A,#SampleApp_SimpleDesc & 0xff
   \   000072   F0           MOVX    @DPTR,A
   \   000073   A3           INC     DPTR
   \   000074   74..         MOV     A,#(SampleApp_SimpleDesc >> 8) & 0xff
   \   000076   F0           MOVX    @DPTR,A
    236            SampleApp_epDesc.latencyReq = noLatencyReqs;
   \   000077   A3           INC     DPTR
   \   000078   E4           CLR     A
   \   000079   F0           MOVX    @DPTR,A
    237          
    238            // Register the endpoint description with the AF
    239            afRegister( &SampleApp_epDesc );
   \   00007A                ; Setup parameters for call to function afRegister
   \   00007A   7A..         MOV     R2,#SampleApp_epDesc & 0xff
   \   00007C   7B..         MOV     R3,#(SampleApp_epDesc >> 8) & 0xff
   \   00007E   12....       LCALL   ??afRegister?relay
    240          
    241            // Register for all key events - This app will handle all key events
    242            RegisterForKeys( SampleApp_TaskID );
   \   000081                ; Setup parameters for call to function RegisterForKeys
   \   000081   90....       MOV     DPTR,#SampleApp_TaskID
   \   000084   E0           MOVX    A,@DPTR
   \   000085   F9           MOV     R1,A
   \   000086   12....       LCALL   ??RegisterForKeys?relay
    243          
    244            // By default, all devices start out in Group 1
    245            SampleApp_Group.ID = 0x0001;
   \   000089   90....       MOV     DPTR,#SampleApp_Group
   \   00008C   7401         MOV     A,#0x1
   \   00008E   F0           MOVX    @DPTR,A
   \   00008F   A3           INC     DPTR
   \   000090   E4           CLR     A
   \   000091   F0           MOVX    @DPTR,A
    246            osal_memcpy( SampleApp_Group.name, "Group 1", 7  );
   \   000092                ; Setup parameters for call to function osal_memcpy
   \   000092   75....       MOV     ?V0 + 0,#`?<Constant "Group 1">` & 0xff
   \   000095   75....       MOV     ?V0 + 1,#(`?<Constant "Group 1">` >> 8) & 0xff
   \   000098   F5..         MOV     ?V0 + 2,A
   \   00009A   78..         MOV     R0,#?V0 + 0
   \   00009C   12....       LCALL   ?PUSH_XSTACK_I_THREE
   \   00009F   7C07         MOV     R4,#0x7
   \   0000A1   7D00         MOV     R5,#0x0
   \   0000A3   7A..         MOV     R2,#(SampleApp_Group + 2) & 0xff
   \   0000A5   7B..         MOV     R3,#((SampleApp_Group + 2) >> 8) & 0xff
   \   0000A7   12....       LCALL   ??osal_memcpy?relay
   \   0000AA   7403         MOV     A,#0x3
   \   0000AC   12....       LCALL   ?DEALLOC_XSTACK8
    247            aps_AddGroup( SAMPLEAPP_ENDPOINT, &SampleApp_Group );
   \   0000AF                ; Setup parameters for call to function aps_AddGroup
   \   0000AF   7A..         MOV     R2,#SampleApp_Group & 0xff
   \   0000B1   7B..         MOV     R3,#(SampleApp_Group >> 8) & 0xff
   \   0000B3   7914         MOV     R1,#0x14
   \   0000B5   12....       LCALL   ??aps_AddGroup?relay
    248          
    249          #if defined ( LCD_SUPPORTED )
    250            HalLcdWriteString( "SampleApp", HAL_LCD_LINE_1 );
    251          #endif
    252          }
   \   0000B8   7F03         MOV     R7,#0x3
   \   0000BA   02....       LJMP    ?BANKED_LEAVE_XDATA
    253          
    254          /*********************************************************************
    255           * @fn      SampleApp_ProcessEvent
    256           *
    257           * @brief   Generic Application Task event processor.  This function
    258           *          is called to process all events for the task.  Events
    259           *          include timers, messages and any other user defined events.
    260           *
    261           * @param   task_id  - The OSAL assigned task ID.
    262           * @param   events - events to process.  This is a bit map and can
    263           *                   contain more than one event.
    264           *
    265           * @return  none
    266           */

   \                                 In  segment BANKED_CODE, align 1, keep-with-next
    267          uint16 SampleApp_ProcessEvent( uint8 task_id, uint16 events )
   \                     SampleApp_ProcessEvent:
    268          {
   \   000000   74F4         MOV     A,#-0xc
   \   000002   12....       LCALL   ?BANKED_ENTER_XDATA
   \   000005                ; Saved register size: 12
   \   000005                ; Auto size: 0
   \   000005   EA           MOV     A,R2
   \   000006   FE           MOV     R6,A
   \   000007   EB           MOV     A,R3
   \   000008   FF           MOV     R7,A
    269            afIncomingMSGPacket_t *MSGpkt;
    270            (void)task_id;  // Intentionally unreferenced parameter
    271          
    272            if ( events & SYS_EVENT_MSG )
   \   000009   5480         ANL     A,#0x80
   \   00000B   7003         JNZ     $+5
   \   00000D   02....       LJMP    ??SampleApp_ProcessEvent_0 & 0xFFFF
    273            {
    274              MSGpkt = (afIncomingMSGPacket_t *)osal_msg_receive( SampleApp_TaskID );
   \   000010                ; Setup parameters for call to function osal_msg_receive
   \   000010   8014         SJMP    ??SampleApp_ProcessEvent_1
    275              while ( MSGpkt )
    276              {
    277                switch ( MSGpkt->hdr.event )
    278                {
    279                  // Received when a key is pressed
    280                  case KEY_CHANGE:
    281                    HalUARTWrite(0, "Key Changed\n", sizeof("Key Changed\n")-1);
    282                    SampleApp_HandleKeys( ((keyChange_t *)MSGpkt)->state, ((keyChange_t *)MSGpkt)->keys );
    283                    break;
    284          
    285                  // Received when a messages is received (OTA) for this endpoint
    286                  case AF_INCOMING_MSG_CMD:
    287                    HalUARTWrite(0, "Data Come\n", sizeof("Data Come\n")-1);
    288                    SampleApp_MessageMSGCB( MSGpkt );
    289                    break;
    290          
    291                  // Received whenever the device changes state in the network
    292                  case ZDO_STATE_CHANGE:
    293                    SampleApp_NwkState = (devStates_t)(MSGpkt->hdr.status);
    294                    if ( (SampleApp_NwkState == DEV_ZB_COORD)
    295                        || (SampleApp_NwkState == DEV_ROUTER)
    296                        || (SampleApp_NwkState == DEV_END_DEVICE) )
    297                    {
    298          //             Start sending the periodic message in a regular interval.
    299                      osal_start_timerEx( SampleApp_TaskID,
    300                                        SAMPLEAPP_SEND_PERIODIC_MSG_EVT,
    301                                        SAMPLEAPP_SEND_PERIODIC_MSG_TIMEOUT ); 
    302                    }
    303                    else
    304                    {
    305                      // Device is no longer in the network
    306                      HalUARTWrite(0, "Out\n", 4);
   \                     ??SampleApp_ProcessEvent_2:
   \   000012                ; Setup parameters for call to function HalUARTWrite
   \   000012   7C04         MOV     R4,#0x4
   \   000014   7D00         MOV     R5,#0x0
   \   000016   7A..         MOV     R2,#`?<Constant "Out\\n">` & 0xff
   \   000018   7B..         MOV     R3,#(`?<Constant "Out\\n">` >> 8) & 0xff
   \   00001A   7900         MOV     R1,#0x0
   \   00001C   12....       LCALL   ??HalUARTWrite?relay
    307                    }
    308                    break;
    309          
    310                  default:
    311                    break;
    312                }
    313          
    314                // Release the memory
    315                osal_msg_deallocate( (uint8 *)MSGpkt );
   \                     ??SampleApp_ProcessEvent_3:
   \   00001F                ; Setup parameters for call to function osal_msg_deallocate
   \   00001F   AA..         MOV     R2,?V0 + 0
   \   000021   AB..         MOV     R3,?V0 + 1
   \   000023   12....       LCALL   ??osal_msg_deallocate?relay
    316          
    317                // Next - if one is available
    318                MSGpkt = (afIncomingMSGPacket_t *)osal_msg_receive( SampleApp_TaskID );
   \   000026                ; Setup parameters for call to function osal_msg_receive
   \                     ??SampleApp_ProcessEvent_1:
   \   000026   90....       MOV     DPTR,#SampleApp_TaskID
   \   000029   E0           MOVX    A,@DPTR
   \   00002A   F9           MOV     R1,A
   \   00002B   12....       LCALL   ??osal_msg_receive?relay
   \   00002E   8A..         MOV     ?V0 + 0,R2
   \   000030   8B..         MOV     ?V0 + 1,R3
   \   000032   E5..         MOV     A,?V0 + 0
   \   000034   45..         ORL     A,?V0 + 1
   \   000036   607C         JZ      ??SampleApp_ProcessEvent_4
   \   000038   85..82       MOV     DPL,?V0 + 0
   \   00003B   85..83       MOV     DPH,?V0 + 1
   \   00003E   E0           MOVX    A,@DPTR
   \   00003F   24E6         ADD     A,#-0x1a
   \   000041   6031         JZ      ??SampleApp_ProcessEvent_5
   \   000043   245A         ADD     A,#0x5a
   \   000045   6006         JZ      ??SampleApp_ProcessEvent_6
   \   000047   24EF         ADD     A,#-0x11
   \   000049   603F         JZ      ??SampleApp_ProcessEvent_7
   \   00004B   80D2         SJMP    ??SampleApp_ProcessEvent_3
   \                     ??SampleApp_ProcessEvent_6:
   \   00004D                ; Setup parameters for call to function HalUARTWrite
   \   00004D   7C0C         MOV     R4,#0xc
   \   00004F   7D00         MOV     R5,#0x0
   \   000051   7A..         MOV     R2,#`?<Constant "Key Changed\\n">` & 0xff
   \   000053   7B..         MOV     R3,#(`?<Constant "Key Changed\\n">` >> 8) & 0xff
   \   000055   7900         MOV     R1,#0x0
   \   000057   12....       LCALL   ??HalUARTWrite?relay
   \   00005A                ; Setup parameters for call to function SampleApp_HandleKeys
   \   00005A   85..82       MOV     DPL,?V0 + 0
   \   00005D   85..83       MOV     DPH,?V0 + 1
   \   000060   A3           INC     DPTR
   \   000061   A3           INC     DPTR
   \   000062   A3           INC     DPTR
   \   000063   E0           MOVX    A,@DPTR
   \   000064   FA           MOV     R2,A
   \   000065   85..82       MOV     DPL,?V0 + 0
   \   000068   85..83       MOV     DPH,?V0 + 1
   \   00006B   A3           INC     DPTR
   \   00006C   A3           INC     DPTR
   \   00006D   E0           MOVX    A,@DPTR
   \   00006E   F9           MOV     R1,A
   \   00006F   12....       LCALL   ??SampleApp_HandleKeys?relay
   \   000072   80AB         SJMP    ??SampleApp_ProcessEvent_3
   \                     ??SampleApp_ProcessEvent_5:
   \   000074                ; Setup parameters for call to function HalUARTWrite
   \   000074   7C0A         MOV     R4,#0xa
   \   000076   7D00         MOV     R5,#0x0
   \   000078   7A..         MOV     R2,#`?<Constant "Data Come\\n">` & 0xff
   \   00007A   7B..         MOV     R3,#(`?<Constant "Data Come\\n">` >> 8) & 0xff
   \   00007C   7900         MOV     R1,#0x0
   \   00007E   12....       LCALL   ??HalUARTWrite?relay
   \   000081                ; Setup parameters for call to function SampleApp_MessageMSGCB
   \   000081   AA..         MOV     R2,?V0 + 0
   \   000083   AB..         MOV     R3,?V0 + 1
   \   000085   12....       LCALL   ??SampleApp_MessageMSGCB?relay
   \   000088   8095         SJMP    ??SampleApp_ProcessEvent_3
   \                     ??SampleApp_ProcessEvent_7:
   \   00008A   A3           INC     DPTR
   \   00008B   E0           MOVX    A,@DPTR
   \   00008C   90....       MOV     DPTR,#SampleApp_NwkState
   \   00008F   F0           MOVX    @DPTR,A
   \   000090   6409         XRL     A,#0x9
   \   000092   600D         JZ      ??SampleApp_ProcessEvent_8
   \   000094   E0           MOVX    A,@DPTR
   \   000095   6407         XRL     A,#0x7
   \   000097   6008         JZ      ??SampleApp_ProcessEvent_8
   \   000099   E0           MOVX    A,@DPTR
   \   00009A   6406         XRL     A,#0x6
   \   00009C   6003         JZ      $+5
   \   00009E   02....       LJMP    ??SampleApp_ProcessEvent_2 & 0xFFFF
   \                     ??SampleApp_ProcessEvent_8:
   \   0000A1                ; Setup parameters for call to function osal_start_timerEx
   \   0000A1   7CD0         MOV     R4,#-0x30
   \   0000A3   7D07         MOV     R5,#0x7
   \   0000A5   7A01         MOV     R2,#0x1
   \   0000A7   7B00         MOV     R3,#0x0
   \   0000A9   90....       MOV     DPTR,#SampleApp_TaskID
   \   0000AC   E0           MOVX    A,@DPTR
   \   0000AD   F9           MOV     R1,A
   \   0000AE   12....       LCALL   ??osal_start_timerEx?relay
   \   0000B1   02....       LJMP    ??SampleApp_ProcessEvent_3 & 0xFFFF
    319              }
    320          
    321              // return unprocessed events
    322              return (events ^ SYS_EVENT_MSG);
   \                     ??SampleApp_ProcessEvent_4:
   \   0000B4   EE           MOV     A,R6
   \   0000B5   FA           MOV     R2,A
   \   0000B6   EF           MOV     A,R7
   \   0000B7   6480         XRL     A,#0x80
   \                     ??SampleApp_ProcessEvent_9:
   \   0000B9   FB           MOV     R3,A
   \   0000BA   802A         SJMP    ??SampleApp_ProcessEvent_10
    323            }
    324          
    325            // Send a message out - This event is generated by a timer
    326            //  (setup in SampleApp_Init()).
    327            if ( events & SAMPLEAPP_SEND_PERIODIC_MSG_EVT )
   \                     ??SampleApp_ProcessEvent_0:
   \   0000BC   EE           MOV     A,R6
   \   0000BD   A2E0         MOV     C,0xE0 /* A   */.0
   \   0000BF   5021         JNC     ??SampleApp_ProcessEvent_11
    328            {
    329              // Send the periodic message
    330              //SampleApp_SendPeriodicMessage();
    331              SampleApp_SendPointMessage();
   \   0000C1                ; Setup parameters for call to function SampleApp_SendPointMessage
   \   0000C1   12....       LCALL   ??SampleApp_SendPointMessage?relay
    332                
    333              // Setup to send message again in normal period (+ a little jitter)
    334              osal_start_timerEx( SampleApp_TaskID, SAMPLEAPP_SEND_PERIODIC_MSG_EVT,
    335                  (SAMPLEAPP_SEND_PERIODIC_MSG_TIMEOUT + (osal_rand() & 0x00FF)) );
   \   0000C4                ; Setup parameters for call to function osal_rand
   \   0000C4   12....       LCALL   ??osal_rand?relay
   \   0000C7                ; Setup parameters for call to function osal_start_timerEx
   \   0000C7   EA           MOV     A,R2
   \   0000C8   24D0         ADD     A,#-0x30
   \   0000CA   FC           MOV     R4,A
   \   0000CB   E4           CLR     A
   \   0000CC   3407         ADDC    A,#0x7
   \   0000CE   FD           MOV     R5,A
   \   0000CF   7A01         MOV     R2,#0x1
   \   0000D1   7B00         MOV     R3,#0x0
   \   0000D3   90....       MOV     DPTR,#SampleApp_TaskID
   \   0000D6   E0           MOVX    A,@DPTR
   \   0000D7   F9           MOV     R1,A
   \   0000D8   12....       LCALL   ??osal_start_timerEx?relay
    336          
    337              // return unprocessed events
    338              return (events ^ SAMPLEAPP_SEND_PERIODIC_MSG_EVT);
   \   0000DB   EE           MOV     A,R6
   \   0000DC   6401         XRL     A,#0x1
   \   0000DE   FA           MOV     R2,A
   \   0000DF   EF           MOV     A,R7
   \   0000E0   80D7         SJMP    ??SampleApp_ProcessEvent_9
    339            }
    340          
    341            // Discard unknown events
    342            return 0;
   \                     ??SampleApp_ProcessEvent_11:
   \   0000E2   7A00         MOV     R2,#0x0
   \   0000E4   7B00         MOV     R3,#0x0
   \                     ??SampleApp_ProcessEvent_10:
   \   0000E6   7F04         MOV     R7,#0x4
   \   0000E8   02....       LJMP    ?BANKED_LEAVE_XDATA
    343          }
    344          
    345          /*********************************************************************
    346           * Event Generation Functions
    347           */
    348          /*********************************************************************
    349           * @fn      SampleApp_HandleKeys
    350           *
    351           * @brief   Handles all key events for this device.
    352           *
    353           * @param   shift - true if in shift/alt.
    354           * @param   keys - bit field for key events. Valid entries:
    355           *                 HAL_KEY_SW_2
    356           *                 HAL_KEY_SW_1
    357           *
    358           * @return  none
    359           */

   \                                 In  segment BANKED_CODE, align 1, keep-with-next
    360          void SampleApp_HandleKeys( uint8 shift, uint8 keys )
   \                     SampleApp_HandleKeys:
    361          {
   \   000000   74F6         MOV     A,#-0xa
   \   000002   12....       LCALL   ?BANKED_ENTER_XDATA
   \   000005                ; Saved register size: 10
   \   000005                ; Auto size: 0
   \   000005   EA           MOV     A,R2
   \   000006   FE           MOV     R6,A
    362            (void)shift;  // Intentionally unreferenced parameter
    363            
    364            if ( keys & HAL_KEY_SW_1 )
   \   000007   A2E0         MOV     C,0xE0 /* A   */.0
   \   000009   5007         JNC     ??SampleApp_HandleKeys_0
    365            {
    366              /* This key sends the Flash Command is sent to Group 1.
    367               * This device will not receive the Flash Command from this
    368               * device (even if it belongs to group 1).
    369               */
    370              SampleApp_SendFlashMessage( SAMPLEAPP_FLASH_DURATION );
   \   00000B                ; Setup parameters for call to function SampleApp_SendFlashMessage
   \   00000B   7AE8         MOV     R2,#-0x18
   \   00000D   7B03         MOV     R3,#0x3
   \   00000F   12....       LCALL   ??SampleApp_SendFlashMessage?relay
    371            }
    372          
    373            if ( keys & HAL_KEY_SW_2 )
   \                     ??SampleApp_HandleKeys_0:
   \   000012   EE           MOV     A,R6
   \   000013   A2E1         MOV     C,0xE0 /* A   */.1
   \   000015   5024         JNC     ??SampleApp_HandleKeys_1
    374            {
    375              /* The Flashr Command is sent to Group 1.
    376               * This key toggles this device in and out of group 1.
    377               * If this device doesn't belong to group 1, this application
    378               * will not receive the Flash command sent to group 1.
    379               */
    380              aps_Group_t *grp;
    381              grp = aps_FindGroup( SAMPLEAPP_ENDPOINT, SAMPLEAPP_FLASH_GROUP );
    382              if ( grp )
   \   000017                ; Setup parameters for call to function aps_FindGroup
   \   000017   7A01         MOV     R2,#0x1
   \   000019   7B00         MOV     R3,#0x0
   \   00001B   7914         MOV     R1,#0x14
   \   00001D   12....       LCALL   ??aps_FindGroup?relay
   \   000020   8B..         MOV     ?V0 + 1,R3
   \   000022   EA           MOV     A,R2
   \   000023   45..         ORL     A,?V0 + 1
   \   000025   600B         JZ      ??SampleApp_HandleKeys_2
    383              {
    384                // Remove from the group
    385                aps_RemoveGroup( SAMPLEAPP_ENDPOINT, SAMPLEAPP_FLASH_GROUP );
   \   000027                ; Setup parameters for call to function aps_RemoveGroup
   \   000027   7A01         MOV     R2,#0x1
   \   000029   7B00         MOV     R3,#0x0
   \   00002B   7914         MOV     R1,#0x14
   \   00002D   12....       LCALL   ??aps_RemoveGroup?relay
   \   000030   8009         SJMP    ??SampleApp_HandleKeys_1
    386              }
    387              else
    388              {
    389                // Add to the flash group
    390                aps_AddGroup( SAMPLEAPP_ENDPOINT, &SampleApp_Group );
   \                     ??SampleApp_HandleKeys_2:
   \   000032                ; Setup parameters for call to function aps_AddGroup
   \   000032   7A..         MOV     R2,#SampleApp_Group & 0xff
   \   000034   7B..         MOV     R3,#(SampleApp_Group >> 8) & 0xff
   \   000036   7914         MOV     R1,#0x14
   \   000038   12....       LCALL   ??aps_AddGroup?relay
    391              }
    392            }
    393            
    394            if (keys &  HAL_KEY_SW_6)
   \                     ??SampleApp_HandleKeys_1:
   \   00003B   EE           MOV     A,R6
   \   00003C   A2E5         MOV     C,0xE0 /* A   */.5
   \   00003E   501A         JNC     ??SampleApp_HandleKeys_3
    395            {
    396              HalUARTWrite(0, "In Handlekey\n", sizeof("In HandleKey\n")-1);
   \   000040                ; Setup parameters for call to function HalUARTWrite
   \   000040   7C0D         MOV     R4,#0xd
   \   000042   7D00         MOV     R5,#0x0
   \   000044   7A..         MOV     R2,#`?<Constant "In Handlekey\\n">` & 0xff
   \   000046   7B..         MOV     R3,#(`?<Constant "In Handlekey\\n">` >> 8) & 0xff
   \   000048   7900         MOV     R1,#0x0
   \   00004A   12....       LCALL   ??HalUARTWrite?relay
    397              HalLedBlink(HAL_LED_1, 2, 50, 500);
   \   00004D                ; Setup parameters for call to function HalLedBlink
   \   00004D   7CF4         MOV     R4,#-0xc
   \   00004F   7D01         MOV     R5,#0x1
   \   000051   7B32         MOV     R3,#0x32
   \   000053   7A02         MOV     R2,#0x2
   \   000055   7901         MOV     R1,#0x1
   \   000057   12....       LCALL   ??HalLedBlink?relay
    398            }
    399          }
   \                     ??SampleApp_HandleKeys_3:
   \   00005A   80..         SJMP    ??Subroutine7_0

   \                                 In  segment BANKED_CODE, align 1, keep-with-next
   \                     ??Subroutine7_0:
   \   000000   7F02         MOV     R7,#0x2
   \   000002   02....       LJMP    ?BANKED_LEAVE_XDATA
    400          
    401          /*********************************************************************
    402           * LOCAL FUNCTIONS
    403           */
    404          
    405          /*********************************************************************
    406           * @fn      SampleApp_MessageMSGCB
    407           *
    408           * @brief   Data message processor callback.  This function processes
    409           *          any incoming data - probably from other devices.  So, based
    410           *          on cluster ID, perform the intended action.
    411           *
    412           * @param   none
    413           *
    414           * @return  none
    415           */

   \                                 In  segment BANKED_CODE, align 1, keep-with-next
    416          void SampleApp_MessageMSGCB( afIncomingMSGPacket_t *pkt )
   \                     SampleApp_MessageMSGCB:
    417          {
   \   000000   74F6         MOV     A,#-0xa
   \   000002   12....       LCALL   ?BANKED_ENTER_XDATA
   \   000005                ; Saved register size: 10
   \   000005                ; Auto size: 0
    418            uint16 flashTime;
    419          
    420            switch ( pkt->clusterId )
   \   000005   8A82         MOV     DPL,R2
   \   000007   8B83         MOV     DPH,R3
   \   000009   A3           INC     DPTR
   \   00000A   A3           INC     DPTR
   \   00000B   A3           INC     DPTR
   \   00000C   A3           INC     DPTR
   \   00000D   E0           MOVX    A,@DPTR
   \   00000E   F5..         MOV     ?V0 + 0,A
   \   000010   A3           INC     DPTR
   \   000011   E0           MOVX    A,@DPTR
   \   000012   F5..         MOV     ?V0 + 1,A
   \   000014   78..         MOV     R0,#?V0 + 0
   \   000016   12....       LCALL   ?US_SWITCH_DENSE
   \                     `?<Jumptable for SampleApp_MessageMSGCB>_0`:
   \   000019   0100         DW        1
   \   00001B   01           DB        1
   \   00001C   ....         DW        ??SampleApp_MessageMSGCB_0
   \   00001E   ....         DW        ??SampleApp_MessageMSGCB_1
   \   000020   ....         DW        ??SampleApp_MessageMSGCB_2
    421            {
    422              case SAMPLEAPP_PERIODIC_CLUSTERID:
    423                HalUARTWrite(0, "In MSGCB\n", sizeof("In MSGCB\n")-1);
   \                     ??SampleApp_MessageMSGCB_1:
   \   000022                ; Setup parameters for call to function HalUARTWrite
   \   000022   7C09         MOV     R4,#0x9
   \   000024   7D00         MOV     R5,#0x0
   \   000026   7A..         MOV     R2,#`?<Constant "In MSGCB\\n">` & 0xff
   \   000028   7B..         MOV     R3,#(`?<Constant "In MSGCB\\n">` >> 8) & 0xff
   \   00002A   7900         MOV     R1,#0x0
   \   00002C   12....       LCALL   ??HalUARTWrite?relay
    424                break;
   \   00002F   803B         SJMP    ??SampleApp_MessageMSGCB_0
    425          
    426              case SAMPLEAPP_FLASH_CLUSTERID:
    427                flashTime = BUILD_UINT16(pkt->cmd.Data[1], pkt->cmd.Data[2] );
    428                HalLedBlink( HAL_LED_4, 4, 50, (flashTime / 4) );
   \                     ??SampleApp_MessageMSGCB_2:
   \   000031   EA           MOV     A,R2
   \   000032   2422         ADD     A,#0x22
   \   000034   F582         MOV     DPL,A
   \   000036   EB           MOV     A,R3
   \   000037   3400         ADDC    A,#0x0
   \   000039   F583         MOV     DPH,A
   \   00003B   E0           MOVX    A,@DPTR
   \   00003C   F8           MOV     R0,A
   \   00003D   A3           INC     DPTR
   \   00003E   E0           MOVX    A,@DPTR
   \   00003F   F9           MOV     R1,A
   \   000040                ; Setup parameters for call to function HalLedBlink
   \   000040   8882         MOV     DPL,R0
   \   000042   8983         MOV     DPH,R1
   \   000044   A3           INC     DPTR
   \   000045   E0           MOVX    A,@DPTR
   \   000046   FA           MOV     R2,A
   \   000047   8882         MOV     DPL,R0
   \   000049   8983         MOV     DPH,R1
   \   00004B   A3           INC     DPTR
   \   00004C   A3           INC     DPTR
   \   00004D   E0           MOVX    A,@DPTR
   \   00004E   F9           MOV     R1,A
   \   00004F   EA           MOV     A,R2
   \   000050   2400         ADD     A,#0x0
   \   000052   F5..         MOV     ?V0 + 0,A
   \   000054   E4           CLR     A
   \   000055   39           ADDC    A,R1
   \   000056   F5..         MOV     ?V0 + 1,A
   \   000058   7402         MOV     A,#0x2
   \   00005A   78..         MOV     R0,#?V0 + 0
   \   00005C   12....       LCALL   ?US_SHR
   \   00005F   AC..         MOV     R4,?V0 + 0
   \   000061   AD..         MOV     R5,?V0 + 1
   \   000063   7B32         MOV     R3,#0x32
   \   000065   7A04         MOV     R2,#0x4
   \   000067   7908         MOV     R1,#0x8
   \   000069   12....       LCALL   ??HalLedBlink?relay
    429                break;
    430            }
    431          }
   \                     ??SampleApp_MessageMSGCB_0:
   \   00006C   80..         SJMP    ??Subroutine7_0
    432          
    433          /*********************************************************************
    434           * @fn      SampleApp_SendPeriodicMessage
    435           *
    436           * @brief   Send the periodic message.
    437           *
    438           * @param   none
    439           *
    440           * @return  none
    441           */

   \                                 In  segment BANKED_CODE, align 1, keep-with-next
   \                     ?Subroutine0:
   \   000000   12....       LCALL   ?DEALLOC_XSTACK8
   \   000003                REQUIRE ??Subroutine7_0
   \   000003                ; // Fall through to label ??Subroutine7_0

   \                                 In  segment BANKED_CODE, align 1, keep-with-next
    442          void SampleApp_SendPeriodicMessage( void )
   \                     SampleApp_SendPeriodicMessage:
    443          {
   \   000000   74F6         MOV     A,#-0xa
   \   000002   12....       LCALL   ?BANKED_ENTER_XDATA
   \   000005                ; Saved register size: 10
   \   000005                ; Auto size: 9
   \   000005   74F7         MOV     A,#-0x9
   \   000007   12....       LCALL   ?ALLOC_XSTACK8
    444            uchar data[] = "From Ep\n"; 
   \   00000A   85..82       MOV     DPL,?XSP + 0
   \   00000D   85..83       MOV     DPH,?XSP + 1
   \   000010   AC82         MOV     R4,DPL
   \   000012   AD83         MOV     R5,DPH
   \   000014   7583..       MOV     DPH,#(`?<Constant "From Ep\\n">` >> 8) & 0xff
   \   000017   7582..       MOV     DPL,#`?<Constant "From Ep\\n">` & 0xff
   \   00001A   7409         MOV     A,#0x9
   \   00001C   12....       LCALL   ?MOVE_LONG8_XDATA_XDATA
    445            if ( AF_DataRequest( &SampleApp_Periodic_DstAddr, &SampleApp_epDesc,
    446                                 SAMPLEAPP_PERIODIC_CLUSTERID,
    447                                 sizeof(data),
    448                                 data,
    449                                 &SampleApp_TransID,
    450                                 AF_DISCV_ROUTE,
    451                                 AF_DEFAULT_RADIUS ) == afStatus_SUCCESS )
   \   00001F                ; Setup parameters for call to function AF_DataRequest
   \   00001F   75..1E       MOV     ?V0 + 0,#0x1e
   \   000022   78..         MOV     R0,#?V0 + 0
   \   000024   12....       LCALL   ?PUSH_XSTACK_I_ONE
   \   000027   75....       MOV     ?V0 + 0,#SampleApp_TransID & 0xff
   \   00002A   75....       MOV     ?V0 + 1,#(SampleApp_TransID >> 8) & 0xff
   \   00002D   78..         MOV     R0,#?V0 + 0
   \   00002F   12....       LCALL   ?PUSH_XSTACK_I_TWO
   \   000032   7403         MOV     A,#0x3
   \   000034   12....       LCALL   ?XSTACK_DISP0_8
   \   000037   8582..       MOV     ?V0 + 0,DPL
   \   00003A   8583..       MOV     ?V0 + 1,DPH
   \   00003D   78..         MOV     R0,#?V0 + 0
   \   00003F   12....       LCALL   ?PUSH_XSTACK_I_TWO
   \   000042   75..09       MOV     ?V0 + 0,#0x9
   \   000045   75..00       MOV     ?V0 + 1,#0x0
   \   000048   78..         MOV     R0,#?V0 + 0
   \   00004A   12....       LCALL   ?PUSH_XSTACK_I_TWO
   \   00004D   75..01       MOV     ?V0 + 0,#0x1
   \   000050   78..         MOV     R0,#?V0 + 0
   \   000052   12....       LCALL   ?PUSH_XSTACK_I_TWO
   \   000055   7920         MOV     R1,#0x20
   \   000057   7C..         MOV     R4,#SampleApp_epDesc & 0xff
   \   000059   7D..         MOV     R5,#(SampleApp_epDesc >> 8) & 0xff
   \   00005B   7A..         MOV     R2,#SampleApp_Periodic_DstAddr & 0xff
   \   00005D   7B..         MOV     R3,#(SampleApp_Periodic_DstAddr >> 8) & 0xff
   \   00005F   12....       LCALL   ??Subroutine8_0 & 0xFFFF
   \                     ??CrossCallReturnLabel_19:
   \   000062   12....       LCALL   ?DEALLOC_XSTACK8
   \   000065   E9           MOV     A,R1
   \   000066   701D         JNZ     ??SampleApp_SendPeriodicMessage_0
    452            {
    453              HalUARTWrite(0, "In Ep SampleApp_SendPeriodMessage : Succeed\n", sizeof("In Ep SampleApp_SendPeriodMessage : Succeed\n")-1);
   \   000068                ; Setup parameters for call to function HalUARTWrite
   \   000068   7C2C         MOV     R4,#0x2c
   \   00006A   7D00         MOV     R5,#0x0
   \   00006C   7A..         MOV     R2,#`?<Constant "In Ep SampleApp_SendP...">` & 0xff
   \   00006E   7B..         MOV     R3,#(`?<Constant "In Ep SampleApp_SendP...">` >> 8) & 0xff
   \   000070   7900         MOV     R1,#0x0
   \   000072   12....       LCALL   ??HalUARTWrite?relay
    454              HalUARTWrite(0, data, sizeof(data));
   \   000075                ; Setup parameters for call to function HalUARTWrite
   \   000075   7C09         MOV     R4,#0x9
   \   000077   7D00         MOV     R5,#0x0
   \   000079   85..82       MOV     DPL,?XSP + 0
   \   00007C   85..83       MOV     DPH,?XSP + 1
   \   00007F   AA82         MOV     R2,DPL
   \   000081   AB83         MOV     R3,DPH
   \   000083   8008         SJMP    ??SampleApp_SendPeriodicMessage_1
    455            }
    456            else
    457            {
    458              // Error occurred in request to send.
    459              HalUARTWrite(0, "In Ep SampleApp_SendPeriodMessage : Failed\n", sizeof("In Ep SampleApp_SendPeriodMessage : Failed\n")-1);
   \                     ??SampleApp_SendPeriodicMessage_0:
   \   000085                ; Setup parameters for call to function HalUARTWrite
   \   000085   7C2B         MOV     R4,#0x2b
   \   000087   7D00         MOV     R5,#0x0
   \   000089   7A..         MOV     R2,#`?<Constant "In Ep SampleApp_SendP...">_1` & 0xff
   \   00008B   7B..         MOV     R3,#(`?<Constant "In Ep SampleApp_SendP...">_1` >> 8) & 0xff
   \                     ??SampleApp_SendPeriodicMessage_1:
   \   00008D   7900         MOV     R1,#0x0
   \   00008F   12....       LCALL   ??HalUARTWrite?relay
    460            }
    461          }
   \   000092   7409         MOV     A,#0x9
   \   000094   02....       LJMP    ?Subroutine0 & 0xFFFF

   \                                 In  segment BANKED_CODE, align 1, keep-with-next
   \                     ??Subroutine8_0:
   \   000000   12....       LCALL   ??AF_DataRequest?relay
   \   000003   7409         MOV     A,#0x9
   \   000005   22           RET
    462          
    463          /*********************************************************************
    464           * @fn      SampleApp_SendFlashMessage
    465           *
    466           * @brief   Send the flash message to group 1.
    467           *
    468           * @param   flashTime - in milliseconds
    469           *
    470           * @return  none
    471           */

   \                                 In  segment BANKED_CODE, align 1, keep-with-next
    472          void SampleApp_SendFlashMessage( uint16 flashTime )
   \                     SampleApp_SendFlashMessage:
    473          {
   \   000000   74F6         MOV     A,#-0xa
   \   000002   12....       LCALL   ?BANKED_ENTER_XDATA
   \   000005                ; Saved register size: 10
   \   000005                ; Auto size: 3
   \   000005   74FD         MOV     A,#-0x3
   \   000007   12....       LCALL   ?ALLOC_XSTACK8
    474            uint8 buffer[3];
    475            buffer[0] = (uint8)(SampleAppFlashCounter++);
   \   00000A   90....       MOV     DPTR,#SampleAppFlashCounter
   \   00000D   E0           MOVX    A,@DPTR
   \   00000E   85..82       MOV     DPL,?XSP + 0
   \   000011   85..83       MOV     DPH,?XSP + 1
   \   000014   F0           MOVX    @DPTR,A
   \   000015   90....       MOV     DPTR,#SampleAppFlashCounter
   \   000018   E0           MOVX    A,@DPTR
   \   000019   04           INC     A
   \   00001A   F0           MOVX    @DPTR,A
    476            buffer[1] = LO_UINT16( flashTime );
   \   00001B   7401         MOV     A,#0x1
   \   00001D   12....       LCALL   ?XSTACK_DISP0_8
   \   000020   EA           MOV     A,R2
   \   000021   F0           MOVX    @DPTR,A
    477            buffer[2] = HI_UINT16( flashTime );
   \   000022   7402         MOV     A,#0x2
   \   000024   12....       LCALL   ?XSTACK_DISP0_8
   \   000027   EB           MOV     A,R3
   \   000028   12....       LCALL   ?Subroutine2 & 0xFFFF
    478          
    479            if ( AF_DataRequest( &SampleApp_Flash_DstAddr, &SampleApp_epDesc,
    480                                 SAMPLEAPP_FLASH_CLUSTERID,
    481                                 3,
    482                                 buffer,
    483                                 &SampleApp_TransID,
    484                                 AF_DISCV_ROUTE,
    485                                 AF_DEFAULT_RADIUS ) == afStatus_SUCCESS )
   \                     ??CrossCallReturnLabel_2:
   \   00002B   12....       LCALL   ?PUSH_XSTACK_I_ONE
   \   00002E   75....       MOV     ?V0 + 0,#SampleApp_TransID & 0xff
   \   000031   75....       MOV     ?V0 + 1,#(SampleApp_TransID >> 8) & 0xff
   \   000034   78..         MOV     R0,#?V0 + 0
   \   000036   12....       LCALL   ?PUSH_XSTACK_I_TWO
   \   000039   7403         MOV     A,#0x3
   \   00003B   12....       LCALL   ?XSTACK_DISP0_8
   \   00003E   8582..       MOV     ?V0 + 0,DPL
   \   000041   8583..       MOV     ?V0 + 1,DPH
   \   000044   78..         MOV     R0,#?V0 + 0
   \   000046   12....       LCALL   ?PUSH_XSTACK_I_TWO
   \   000049   75..03       MOV     ?V0 + 0,#0x3
   \   00004C   75..00       MOV     ?V0 + 1,#0x0
   \   00004F   78..         MOV     R0,#?V0 + 0
   \   000051   12....       LCALL   ?PUSH_XSTACK_I_TWO
   \   000054   75..02       MOV     ?V0 + 0,#0x2
   \   000057   78..         MOV     R0,#?V0 + 0
   \   000059   12....       LCALL   ?PUSH_XSTACK_I_TWO
   \   00005C   7920         MOV     R1,#0x20
   \   00005E   7C..         MOV     R4,#SampleApp_epDesc & 0xff
   \   000060   7D..         MOV     R5,#(SampleApp_epDesc >> 8) & 0xff
   \   000062   7A..         MOV     R2,#SampleApp_Flash_DstAddr & 0xff
   \   000064   7B..         MOV     R3,#(SampleApp_Flash_DstAddr >> 8) & 0xff
   \   000066   12....       LCALL   ??Subroutine8_0 & 0xFFFF
   \                     ??CrossCallReturnLabel_20:
   \   000069   12....       LCALL   ?DEALLOC_XSTACK8
    486            {
    487            }
    488            else
    489            {
    490              // Error occurred in request to send.
    491            }
    492          }
   \   00006C   7403         MOV     A,#0x3
   \   00006E   02....       LJMP    ?Subroutine0 & 0xFFFF

   \                                 In  segment BANKED_CODE, align 1, keep-with-next
   \                     ?Subroutine2:
   \   000000   F0           MOVX    @DPTR,A
   \   000001                ; Setup parameters for call to function AF_DataRequest
   \   000001                ; Setup parameters for call to function AF_DataRequest
   \   000001                ; Setup parameters for call to function AF_DataRequest
   \   000001   75..1E       MOV     ?V0 + 0,#0x1e
   \   000004   78..         MOV     R0,#?V0 + 0
   \   000006   22           RET
    493          
    494          /*********************************************************************
    495          *********************************************************************/
    496          

   \                                 In  segment BANKED_CODE, align 1, keep-with-next
   \                     ?Subroutine6:
   \   000000   7920         MOV     R1,#0x20
   \   000002   7C..         MOV     R4,#SampleApp_epDesc & 0xff
   \   000004   7D..         MOV     R5,#(SampleApp_epDesc >> 8) & 0xff
   \   000006   7A..         MOV     R2,#SampleApp_Point_DstAddr & 0xff
   \   000008   7B..         MOV     R3,#(SampleApp_Point_DstAddr >> 8) & 0xff
   \   00000A                REQUIRE ??Subroutine8_0
   \   00000A                ; // Fall through to label ??Subroutine8_0

   \                                 In  segment BANKED_CODE, align 1, keep-with-next
    497          void SampleApp_SendPointMessage(void)
   \                     SampleApp_SendPointMessage:
    498          {
   \   000000   74F0         MOV     A,#-0x10
   \   000002   12....       LCALL   ?BANKED_ENTER_XDATA
   \   000005                ; Saved register size: 16
   \   000005                ; Auto size: 67
   \   000005   74BD         MOV     A,#-0x43
   \   000007   12....       LCALL   ?ALLOC_XSTACK8
    499            HalUARTWrite(0, "PointMsg\n", sizeof("PointMsg\n")-1);
   \   00000A                ; Setup parameters for call to function HalUARTWrite
   \   00000A   7C09         MOV     R4,#0x9
   \   00000C   7D00         MOV     R5,#0x0
   \   00000E   7A..         MOV     R2,#`?<Constant "PointMsg\\n">` & 0xff
   \   000010   7B..         MOV     R3,#(`?<Constant "PointMsg\\n">` >> 8) & 0xff
   \   000012   7900         MOV     R1,#0x0
   \   000014   12....       LCALL   ??HalUARTWrite?relay
    500            uchar asc[16] = "0124567889ABCDEF";
   \   000017   90....       MOV     DPTR,#`?<Constant "0124567889ABCDEF">`
   \   00001A   C082         PUSH    DPL
   \   00001C   7401         MOV     A,#0x1
   \   00001E   12....       LCALL   ?XSTACK_DISP0_8
   \   000021   AC82         MOV     R4,DPL
   \   000023   AD83         MOV     R5,DPH
   \   000025   7583..       MOV     DPH,#(`?<Constant "0124567889ABCDEF">` >> 8) & 0xff
   \   000028   D082         POP     DPL
   \   00002A   7410         MOV     A,#0x10
   \   00002C   12....       LCALL   ?MOVE_LONG8_XDATA_XDATA
    501            uchar buffer[50];
    502            buffer[0] = SHORTADDR_INFO;
   \   00002F   7411         MOV     A,#0x11
   \   000031   12....       LCALL   ?XSTACK_DISP0_8
   \   000034   E4           CLR     A
   \   000035   F0           MOVX    @DPTR,A
    503            buffer[1] = asc[temp / 4096];
   \   000036   04           INC     A
   \   000037   12....       LCALL   ?XSTACK_DISP0_8
   \   00003A   E0           MOVX    A,@DPTR
   \   00003B   C0E0         PUSH    A
   \   00003D   7412         MOV     A,#0x12
   \   00003F   12....       LCALL   ?XSTACK_DISP0_8
   \   000042   D0E0         POP     A
   \   000044   F0           MOVX    @DPTR,A
    504            buffer[2] = asc[temp % 4096 / 256];
   \   000045   7401         MOV     A,#0x1
   \   000047   12....       LCALL   ?XSTACK_DISP0_8
   \   00004A   E0           MOVX    A,@DPTR
   \   00004B   C0E0         PUSH    A
   \   00004D   7413         MOV     A,#0x13
   \   00004F   12....       LCALL   ?XSTACK_DISP0_8
   \   000052   D0E0         POP     A
   \   000054   F0           MOVX    @DPTR,A
    505            buffer[3] = asc[temp % 256 / 16];
   \   000055   90....       MOV     DPTR,#temp
   \   000058   E0           MOVX    A,@DPTR
   \   000059   C4           SWAP    A
   \   00005A   540F         ANL     A,#0xf
   \   00005C   F8           MOV     R0,A
   \   00005D   7401         MOV     A,#0x1
   \   00005F   12....       LCALL   ?XSTACK_DISP0_8
   \   000062   12....       LCALL   ?Subroutine5 & 0xFFFF
   \                     ??CrossCallReturnLabel_11:
   \   000065   C0E0         PUSH    A
   \   000067   7414         MOV     A,#0x14
   \   000069   12....       LCALL   ?XSTACK_DISP0_8
   \   00006C   D0E0         POP     A
   \   00006E   F0           MOVX    @DPTR,A
    506            buffer[4] = asc[temp % 16];
   \   00006F   90....       MOV     DPTR,#temp
   \   000072   E0           MOVX    A,@DPTR
   \   000073   540F         ANL     A,#0xf
   \   000075   F8           MOV     R0,A
   \   000076   7401         MOV     A,#0x1
   \   000078   12....       LCALL   ?XSTACK_DISP0_8
   \   00007B   12....       LCALL   ?Subroutine5 & 0xFFFF
   \                     ??CrossCallReturnLabel_12:
   \   00007E   C0E0         PUSH    A
   \   000080   7415         MOV     A,#0x15
   \   000082   12....       LCALL   ?XSTACK_DISP0_8
   \   000085   D0E0         POP     A
   \   000087   F0           MOVX    @DPTR,A
    507            buffer[5] = '\n';
   \   000088   7416         MOV     A,#0x16
   \   00008A   12....       LCALL   ?XSTACK_DISP0_8
   \   00008D   740A         MOV     A,#0xa
   \   00008F   12....       LCALL   ?Subroutine2 & 0xFFFF
    508            if ( AF_DataRequest( &SampleApp_Point_DstAddr, &SampleApp_epDesc,
    509                                 SAMPLEAPP_POINT_CLUSTERID,
    510                                 6,
    511                                 buffer,
    512                                 &SampleApp_TransID,
    513                                 AF_DISCV_ROUTE,
    514                                 AF_DEFAULT_RADIUS ) == afStatus_SUCCESS )
   \                     ??CrossCallReturnLabel_3:
   \   000092   12....       LCALL   ?PUSH_XSTACK_I_ONE
   \   000095   75....       MOV     ?V0 + 0,#SampleApp_TransID & 0xff
   \   000098   75....       MOV     ?V0 + 1,#(SampleApp_TransID >> 8) & 0xff
   \   00009B   78..         MOV     R0,#?V0 + 0
   \   00009D   12....       LCALL   ?PUSH_XSTACK_I_TWO
   \   0000A0   7414         MOV     A,#0x14
   \   0000A2   12....       LCALL   ?XSTACK_DISP0_8
   \   0000A5   8582..       MOV     ?V0 + 0,DPL
   \   0000A8   8583..       MOV     ?V0 + 1,DPH
   \   0000AB   78..         MOV     R0,#?V0 + 0
   \   0000AD   12....       LCALL   ?PUSH_XSTACK_I_TWO
   \   0000B0   75..06       MOV     ?V0 + 0,#0x6
   \   0000B3   75..00       MOV     ?V0 + 1,#0x0
   \   0000B6   78..         MOV     R0,#?V0 + 0
   \   0000B8   12....       LCALL   ?PUSH_XSTACK_I_TWO
   \   0000BB   75..03       MOV     ?V0 + 0,#0x3
   \   0000BE   78..         MOV     R0,#?V0 + 0
   \   0000C0   12....       LCALL   ?PUSH_XSTACK_I_TWO
   \   0000C3   12....       LCALL   ?Subroutine6 & 0xFFFF
   \                     ??CrossCallReturnLabel_15:
   \   0000C6   12....       LCALL   ?DEALLOC_XSTACK8
   \   0000C9   E9           MOV     A,R1
   \   0000CA   700A         JNZ     ??SampleApp_SendPointMessage_0
    515            {
    516              HalUARTWrite(0, "DevMsg Success\n", sizeof("DevMsg Success\n")-1);
   \   0000CC                ; Setup parameters for call to function HalUARTWrite
   \   0000CC   7C0F         MOV     R4,#0xf
   \   0000CE   7D00         MOV     R5,#0x0
   \   0000D0   7A..         MOV     R2,#`?<Constant "DevMsg Success\\n">` & 0xff
   \   0000D2   7B..         MOV     R3,#(`?<Constant "DevMsg Success\\n">` >> 8) & 0xff
   \   0000D4   8008         SJMP    ??SampleApp_SendPointMessage_1
    517            }
    518            else
    519            {
    520              // Error occurred in request to send.
    521              HalUARTWrite(0, "DevMsg Failed\n", sizeof("DevMsg Failed\n")-1);
   \                     ??SampleApp_SendPointMessage_0:
   \   0000D6                ; Setup parameters for call to function HalUARTWrite
   \   0000D6   7C0E         MOV     R4,#0xe
   \   0000D8   7D00         MOV     R5,#0x0
   \   0000DA   7A..         MOV     R2,#`?<Constant "DevMsg Failed\\n">` & 0xff
   \   0000DC   7B..         MOV     R3,#(`?<Constant "DevMsg Failed\\n">` >> 8) & 0xff
   \                     ??SampleApp_SendPointMessage_1:
   \   0000DE   7900         MOV     R1,#0x0
   \   0000E0   12....       LCALL   ??HalUARTWrite?relay
    522            }
    523            
    524            uint8 device;
    525            
    526            if(SampleApp_NwkState == DEV_END_DEVICE)
   \   0000E3   90....       MOV     DPTR,#SampleApp_NwkState
   \   0000E6   E0           MOVX    A,@DPTR
   \   0000E7   6406         XRL     A,#0x6
   \   0000E9   7004         JNZ     ??SampleApp_SendPointMessage_2
    527          	device = 0x01;
   \   0000EB   7801         MOV     R0,#0x1
   \   0000ED   800B         SJMP    ??SampleApp_SendPointMessage_3
    528            else if (SampleApp_NwkState == DEV_ROUTER)
   \                     ??SampleApp_SendPointMessage_2:
   \   0000EF   E0           MOVX    A,@DPTR
   \   0000F0   6407         XRL     A,#0x7
   \   0000F2   7004         JNZ     ??SampleApp_SendPointMessage_4
    529                  device = 0x02;
   \   0000F4   7802         MOV     R0,#0x2
   \   0000F6   8002         SJMP    ??SampleApp_SendPointMessage_3
    530            else
    531                  device = 0x03;  // error
   \                     ??SampleApp_SendPointMessage_4:
   \   0000F8   7803         MOV     R0,#0x3
    532            
    533            buffer[0] = TYPE_INFO;
   \                     ??SampleApp_SendPointMessage_3:
   \   0000FA   7411         MOV     A,#0x11
   \   0000FC   12....       LCALL   ?XSTACK_DISP0_8
   \   0000FF   7401         MOV     A,#0x1
   \   000101   F0           MOVX    @DPTR,A
    534            buffer[1] = device;
   \   000102   7412         MOV     A,#0x12
   \   000104   12....       LCALL   ?XSTACK_DISP0_8
   \   000107   E8           MOV     A,R0
   \   000108   12....       LCALL   ?Subroutine2 & 0xFFFF
    535            
    536            
    537            
    538            if ( AF_DataRequest( &SampleApp_Point_DstAddr, &SampleApp_epDesc,
    539                                 SAMPLEAPP_POINT_CLUSTERID,
    540                                 2,
    541                                 buffer,
    542                                 &SampleApp_TransID,
    543                                 AF_DISCV_ROUTE,
    544                                 AF_DEFAULT_RADIUS ) == afStatus_SUCCESS )
   \                     ??CrossCallReturnLabel_4:
   \   00010B   12....       LCALL   ?PUSH_XSTACK_I_ONE
   \   00010E   75....       MOV     ?V0 + 0,#SampleApp_TransID & 0xff
   \   000111   75....       MOV     ?V0 + 1,#(SampleApp_TransID >> 8) & 0xff
   \   000114   78..         MOV     R0,#?V0 + 0
   \   000116   12....       LCALL   ?PUSH_XSTACK_I_TWO
   \   000119   7414         MOV     A,#0x14
   \   00011B   12....       LCALL   ?XSTACK_DISP0_8
   \   00011E   8582..       MOV     ?V0 + 0,DPL
   \   000121   8583..       MOV     ?V0 + 1,DPH
   \   000124   78..         MOV     R0,#?V0 + 0
   \   000126   12....       LCALL   ?PUSH_XSTACK_I_TWO
   \   000129   75..02       MOV     ?V0 + 0,#0x2
   \   00012C   75..00       MOV     ?V0 + 1,#0x0
   \   00012F   78..         MOV     R0,#?V0 + 0
   \   000131   12....       LCALL   ?PUSH_XSTACK_I_TWO
   \   000134   75..03       MOV     ?V0 + 0,#0x3
   \   000137   78..         MOV     R0,#?V0 + 0
   \   000139   12....       LCALL   ?PUSH_XSTACK_I_TWO
   \   00013C   12....       LCALL   ?Subroutine6 & 0xFFFF
   \                     ??CrossCallReturnLabel_16:
   \   00013F   12....       LCALL   ?DEALLOC_XSTACK8
   \   000142   E9           MOV     A,R1
   \   000143   700A         JNZ     ??SampleApp_SendPointMessage_5
    545            {
    546              HalUARTWrite(0, "TypMsg Success\n", sizeof("DevMsg Success\n")-1);
   \   000145                ; Setup parameters for call to function HalUARTWrite
   \   000145   7C0F         MOV     R4,#0xf
   \   000147   7D00         MOV     R5,#0x0
   \   000149   7A..         MOV     R2,#`?<Constant "TypMsg Success\\n">` & 0xff
   \   00014B   7B..         MOV     R3,#(`?<Constant "TypMsg Success\\n">` >> 8) & 0xff
   \   00014D   8008         SJMP    ??SampleApp_SendPointMessage_6
    547            }
    548            else
    549            {
    550              // Error occurred in request to send.
    551              HalUARTWrite(0, "TypMsg Failed\n", sizeof("DevMsg Failed\n")-1);
   \                     ??SampleApp_SendPointMessage_5:
   \   00014F                ; Setup parameters for call to function HalUARTWrite
   \   00014F   7C0E         MOV     R4,#0xe
   \   000151   7D00         MOV     R5,#0x0
   \   000153   7A..         MOV     R2,#`?<Constant "TypMsg Failed\\n">` & 0xff
   \   000155   7B..         MOV     R3,#(`?<Constant "TypMsg Failed\\n">` >> 8) & 0xff
   \                     ??SampleApp_SendPointMessage_6:
   \   000157   7900         MOV     R1,#0x0
   \   000159   12....       LCALL   ??HalUARTWrite?relay
    552            }
    553            
    554            Temp_test();
   \   00015C                ; Setup parameters for call to function Temp_test
   \   00015C   12....       LCALL   ??Temp_test?relay
    555            buffer[0] = TEMP_INFO;
   \   00015F   7411         MOV     A,#0x11
   \   000161   12....       LCALL   ?XSTACK_DISP0_8
   \   000164   7402         MOV     A,#0x2
   \   000166   F0           MOVX    @DPTR,A
    556            buffer[1] = asc[temp / 10];
   \   000167   75F00A       MOV     B,#0xa
   \   00016A   90....       MOV     DPTR,#temp
   \   00016D   E0           MOVX    A,@DPTR
   \   00016E   84           DIV     AB
   \   00016F   F8           MOV     R0,A
   \   000170   7401         MOV     A,#0x1
   \   000172   12....       LCALL   ?XSTACK_DISP0_8
   \   000175   12....       LCALL   ?Subroutine5 & 0xFFFF
   \                     ??CrossCallReturnLabel_13:
   \   000178   C0E0         PUSH    A
   \   00017A   7412         MOV     A,#0x12
   \   00017C   12....       LCALL   ?XSTACK_DISP0_8
   \   00017F   D0E0         POP     A
   \   000181   F0           MOVX    @DPTR,A
    557            buffer[2] = asc[temp % 10];
   \   000182   90....       MOV     DPTR,#temp
   \   000185   E0           MOVX    A,@DPTR
   \   000186   75F00A       MOV     B,#0xa
   \   000189   84           DIV     AB
   \   00018A   A8F0         MOV     R0,B
   \   00018C   7401         MOV     A,#0x1
   \   00018E   12....       LCALL   ?XSTACK_DISP0_8
   \   000191   12....       LCALL   ?Subroutine5 & 0xFFFF
   \                     ??CrossCallReturnLabel_14:
   \   000194   C0E0         PUSH    A
   \   000196   7413         MOV     A,#0x13
   \   000198   12....       LCALL   ?XSTACK_DISP0_8
   \   00019B   D0E0         POP     A
   \   00019D   F0           MOVX    @DPTR,A
    558            HalUARTWrite(0, &buffer[1], 2); 
   \   00019E                ; Setup parameters for call to function HalUARTWrite
   \   00019E   7C02         MOV     R4,#0x2
   \   0001A0   7D00         MOV     R5,#0x0
   \   0001A2   7412         MOV     A,#0x12
   \   0001A4   12....       LCALL   ?XSTACK_DISP0_8
   \   0001A7   12....       LCALL   ?Subroutine1 & 0xFFFF
    559            HalUARTWrite(0, "\n", 1);
    560            
    561            
    562            if ( AF_DataRequest( &SampleApp_Point_DstAddr, &SampleApp_epDesc,
    563                                 SAMPLEAPP_POINT_CLUSTERID,
    564                                 3,
    565                                 buffer,
    566                                 &SampleApp_TransID,
    567                                 AF_DISCV_ROUTE,
    568                                 AF_DEFAULT_RADIUS ) == afStatus_SUCCESS )
   \                     ??CrossCallReturnLabel_0:
   \   0001AA   12....       LCALL   ?PUSH_XSTACK_I_ONE
   \   0001AD   75....       MOV     ?V0 + 0,#SampleApp_TransID & 0xff
   \   0001B0   75....       MOV     ?V0 + 1,#(SampleApp_TransID >> 8) & 0xff
   \   0001B3   78..         MOV     R0,#?V0 + 0
   \   0001B5   12....       LCALL   ?PUSH_XSTACK_I_TWO
   \   0001B8   7414         MOV     A,#0x14
   \   0001BA   12....       LCALL   ?XSTACK_DISP0_8
   \   0001BD   8582..       MOV     ?V0 + 0,DPL
   \   0001C0   8583..       MOV     ?V0 + 1,DPH
   \   0001C3   78..         MOV     R0,#?V0 + 0
   \   0001C5   12....       LCALL   ?PUSH_XSTACK_I_TWO
   \   0001C8   75..03       MOV     ?V0 + 0,#0x3
   \   0001CB   75..00       MOV     ?V0 + 1,#0x0
   \   0001CE   78..         MOV     R0,#?V0 + 0
   \   0001D0   12....       LCALL   ?PUSH_XSTACK_I_TWO
   \   0001D3   78..         MOV     R0,#?V0 + 0
   \   0001D5   12....       LCALL   ?PUSH_XSTACK_I_TWO
   \   0001D8   12....       LCALL   ?Subroutine6 & 0xFFFF
   \                     ??CrossCallReturnLabel_17:
   \   0001DB   12....       LCALL   ?DEALLOC_XSTACK8
   \   0001DE   E9           MOV     A,R1
   \   0001DF   700A         JNZ     ??SampleApp_SendPointMessage_7
    569            {
    570              HalUARTWrite(0, "TempMsg Success\n", sizeof("TempMsg Success\n")-1);
   \   0001E1                ; Setup parameters for call to function HalUARTWrite
   \   0001E1   7C10         MOV     R4,#0x10
   \   0001E3   7D00         MOV     R5,#0x0
   \   0001E5   7A..         MOV     R2,#`?<Constant "TempMsg Success\\n">` & 0xff
   \   0001E7   7B..         MOV     R3,#(`?<Constant "TempMsg Success\\n">` >> 8) & 0xff
   \   0001E9   8008         SJMP    ??SampleApp_SendPointMessage_8
    571            }
    572            else
    573            {
    574              // Error occurred in request to send.
    575              HalUARTWrite(0, "TempMsg Failed\n", sizeof("TempMsg Failed\n")-1);
   \                     ??SampleApp_SendPointMessage_7:
   \   0001EB                ; Setup parameters for call to function HalUARTWrite
   \   0001EB   7C0F         MOV     R4,#0xf
   \   0001ED   7D00         MOV     R5,#0x0
   \   0001EF   7A..         MOV     R2,#`?<Constant "TempMsg Failed\\n">` & 0xff
   \   0001F1   7B..         MOV     R3,#(`?<Constant "TempMsg Failed\\n">` >> 8) & 0xff
   \                     ??SampleApp_SendPointMessage_8:
   \   0001F3   7900         MOV     R1,#0x0
   \   0001F5   12....       LCALL   ??HalUARTWrite?relay
    576            }
    577            
    578            // get vol
    579            P0DIR &= ~0x80;
   \   0001F8   53FD7F       ANL     0xfd,#0x7f
    580            P0INP |= 0x80;
   \   0001FB   438F80       ORL     0x8f,#0x80
    581            ADCCON3 = 0xb7;
   \   0001FE   75B6B7       MOV     0xb6,#-0x49
    582            while (!ADCCON1 & 0x80);
   \   000201   E5B4         MOV     A,0xb4
    583            uint res = (((uint)ADCL >> 4)| ((uint)ADCH << 4));
                        ^
Warning[Pa082]: undefined behavior: the order of volatile accesses is
          undefined in this statement
    584            float vol = (float)res / 2047 * 5;
    585            res = (uint)(vol * 100);
   \   000203   E5BA         MOV     A,0xba
   \   000205   85..82       MOV     DPL,?XSP + 0
   \   000208   85..83       MOV     DPH,?XSP + 1
   \   00020B   F0           MOVX    @DPTR,A
   \   00020C   C4           SWAP    A
   \   00020D   540F         ANL     A,#0xf
   \   00020F   FA           MOV     R2,A
   \   000210   85BB..       MOV     ?V0 + 0,0xbb
   \   000213   7404         MOV     A,#0x4
   \   000215   78..         MOV     R0,#?V0 + 0
   \   000217   12....       LCALL   ?S_SHL
   \   00021A   EA           MOV     A,R2
   \   00021B   45..         ORL     A,?V0 + 0
   \   00021D   F5..         MOV     ?V0 + 0,A
   \   00021F   E4           CLR     A
   \   000220   F5..         MOV     ?V0 + 2,A
   \   000222   F5..         MOV     ?V0 + 3,A
   \   000224   78..         MOV     R0,#?V0 + 0
   \   000226   12....       LCALL   ?UL_TO_FLT
   \   000229   90....       MOV     DPTR,#__Constant_44ffe000
   \   00022C   78..         MOV     R0,#?V0 + 4
   \   00022E   12....       LCALL   ?L_MOV_X
   \   000231   78..         MOV     R0,#?V0 + 0
   \   000233   79..         MOV     R1,#?V0 + 4
   \   000235   12....       LCALL   ?FLT_DIV
   \   000238   90....       MOV     DPTR,#__Constant_40a00000
   \   00023B   78..         MOV     R0,#?V0 + 4
   \   00023D   12....       LCALL   ?L_MOV_X
   \   000240   78..         MOV     R0,#?V0 + 0
   \   000242   79..         MOV     R1,#?V0 + 4
   \   000244   12....       LCALL   ?FLT_MUL
   \   000247   90....       MOV     DPTR,#__Constant_42c80000
   \   00024A   78..         MOV     R0,#?V0 + 4
   \   00024C   12....       LCALL   ?L_MOV_X
   \   00024F   78..         MOV     R0,#?V0 + 0
   \   000251   79..         MOV     R1,#?V0 + 4
   \   000253   12....       LCALL   ?FLT_MUL
   \   000256   78..         MOV     R0,#?V0 + 0
   \   000258   12....       LCALL   ?FLT_TO_L
   \   00025B   AC..         MOV     R4,?V0 + 0
   \   00025D   AD..         MOV     R5,?V0 + 1
    586            
    587            
    588            buffer[0] = VOL_INFO;
   \   00025F   7411         MOV     A,#0x11
   \   000261   12....       LCALL   ?XSTACK_DISP0_8
   \   000264   7403         MOV     A,#0x3
   \   000266   12....       LCALL   ?Subroutine3 & 0xFFFF
    589            buffer[1] = asc[res / 1000];
   \                     ??CrossCallReturnLabel_5:
   \   000269   12....       LCALL   ?US_DIV_MOD
   \   00026C   88..         MOV     ?V0 + 0,R0
   \   00026E   89..         MOV     ?V0 + 1,R1
   \   000270   7401         MOV     A,#0x1
   \   000272   12....       LCALL   ?XSTACK_DISP0_8
   \   000275   12....       LCALL   ?Subroutine4 & 0xFFFF
   \                     ??CrossCallReturnLabel_7:
   \   000278   C0E0         PUSH    A
   \   00027A   7412         MOV     A,#0x12
   \   00027C   12....       LCALL   ?XSTACK_DISP0_8
   \   00027F   D0E0         POP     A
   \   000281   12....       LCALL   ?Subroutine3 & 0xFFFF
    590            buffer[2] = asc[res % 1000 / 100];
   \                     ??CrossCallReturnLabel_6:
   \   000284   12....       LCALL   ?US_DIV_MOD
   \   000287   EA           MOV     A,R2
   \   000288   F8           MOV     R0,A
   \   000289   EB           MOV     A,R3
   \   00028A   F9           MOV     R1,A
   \   00028B   7A64         MOV     R2,#0x64
   \   00028D   7B00         MOV     R3,#0x0
   \   00028F   12....       LCALL   ?US_DIV_MOD
   \   000292   88..         MOV     ?V0 + 0,R0
   \   000294   89..         MOV     ?V0 + 1,R1
   \   000296   7401         MOV     A,#0x1
   \   000298   12....       LCALL   ?XSTACK_DISP0_8
   \   00029B   12....       LCALL   ?Subroutine4 & 0xFFFF
   \                     ??CrossCallReturnLabel_8:
   \   00029E   C0E0         PUSH    A
   \   0002A0   7413         MOV     A,#0x13
   \   0002A2   12....       LCALL   ?XSTACK_DISP0_8
   \   0002A5   D0E0         POP     A
   \   0002A7   F0           MOVX    @DPTR,A
    591            buffer[3] = '.';
   \   0002A8   7414         MOV     A,#0x14
   \   0002AA   12....       LCALL   ?XSTACK_DISP0_8
   \   0002AD   742E         MOV     A,#0x2e
   \   0002AF   F0           MOVX    @DPTR,A
    592            buffer[4] = asc[res % 100 / 10];
   \   0002B0   EC           MOV     A,R4
   \   0002B1   F8           MOV     R0,A
   \   0002B2   ED           MOV     A,R5
   \   0002B3   F9           MOV     R1,A
   \   0002B4   7A64         MOV     R2,#0x64
   \   0002B6   7B00         MOV     R3,#0x0
   \   0002B8   12....       LCALL   ?US_DIV_MOD
   \   0002BB   EA           MOV     A,R2
   \   0002BC   F8           MOV     R0,A
   \   0002BD   EB           MOV     A,R3
   \   0002BE   F9           MOV     R1,A
   \   0002BF   7A0A         MOV     R2,#0xa
   \   0002C1   7B00         MOV     R3,#0x0
   \   0002C3   12....       LCALL   ?US_DIV_MOD
   \   0002C6   88..         MOV     ?V0 + 0,R0
   \   0002C8   89..         MOV     ?V0 + 1,R1
   \   0002CA   7401         MOV     A,#0x1
   \   0002CC   12....       LCALL   ?XSTACK_DISP0_8
   \   0002CF   12....       LCALL   ?Subroutine4 & 0xFFFF
   \                     ??CrossCallReturnLabel_9:
   \   0002D2   C0E0         PUSH    A
   \   0002D4   7415         MOV     A,#0x15
   \   0002D6   12....       LCALL   ?XSTACK_DISP0_8
   \   0002D9   D0E0         POP     A
   \   0002DB   F0           MOVX    @DPTR,A
    593            buffer[5] = asc[res % 10];
   \   0002DC   EC           MOV     A,R4
   \   0002DD   F8           MOV     R0,A
   \   0002DE   ED           MOV     A,R5
   \   0002DF   F9           MOV     R1,A
   \   0002E0   7A0A         MOV     R2,#0xa
   \   0002E2   7B00         MOV     R3,#0x0
   \   0002E4   12....       LCALL   ?US_DIV_MOD
   \   0002E7   8A..         MOV     ?V0 + 0,R2
   \   0002E9   8B..         MOV     ?V0 + 1,R3
   \   0002EB   7401         MOV     A,#0x1
   \   0002ED   12....       LCALL   ?XSTACK_DISP0_8
   \   0002F0   12....       LCALL   ?Subroutine4 & 0xFFFF
   \                     ??CrossCallReturnLabel_10:
   \   0002F3   C0E0         PUSH    A
   \   0002F5   7416         MOV     A,#0x16
   \   0002F7   12....       LCALL   ?XSTACK_DISP0_8
   \   0002FA   D0E0         POP     A
   \   0002FC   F0           MOVX    @DPTR,A
    594            
    595            HalUARTWrite(0, &buffer[1], 5);
   \   0002FD                ; Setup parameters for call to function HalUARTWrite
   \   0002FD   7C05         MOV     R4,#0x5
   \   0002FF   7D00         MOV     R5,#0x0
   \   000301   7412         MOV     A,#0x12
   \   000303   12....       LCALL   ?XSTACK_DISP0_8
   \   000306   12....       LCALL   ?Subroutine1 & 0xFFFF
    596            HalUARTWrite(0, "\n", 1);
    597            
    598            if ( AF_DataRequest( &SampleApp_Point_DstAddr, &SampleApp_epDesc,
    599                                 SAMPLEAPP_POINT_CLUSTERID,
    600                                 6,
    601                                 buffer,
    602                                 &SampleApp_TransID,
    603                                 AF_DISCV_ROUTE,
    604                                 AF_DEFAULT_RADIUS ) == afStatus_SUCCESS )
   \                     ??CrossCallReturnLabel_1:
   \   000309   12....       LCALL   ?PUSH_XSTACK_I_ONE
   \   00030C   75....       MOV     ?V0 + 0,#SampleApp_TransID & 0xff
   \   00030F   75....       MOV     ?V0 + 1,#(SampleApp_TransID >> 8) & 0xff
   \   000312   78..         MOV     R0,#?V0 + 0
   \   000314   12....       LCALL   ?PUSH_XSTACK_I_TWO
   \   000317   7414         MOV     A,#0x14
   \   000319   12....       LCALL   ?XSTACK_DISP0_8
   \   00031C   8582..       MOV     ?V0 + 0,DPL
   \   00031F   8583..       MOV     ?V0 + 1,DPH
   \   000322   78..         MOV     R0,#?V0 + 0
   \   000324   12....       LCALL   ?PUSH_XSTACK_I_TWO
   \   000327   75..06       MOV     ?V0 + 0,#0x6
   \   00032A   75..00       MOV     ?V0 + 1,#0x0
   \   00032D   78..         MOV     R0,#?V0 + 0
   \   00032F   12....       LCALL   ?PUSH_XSTACK_I_TWO
   \   000332   75..03       MOV     ?V0 + 0,#0x3
   \   000335   78..         MOV     R0,#?V0 + 0
   \   000337   12....       LCALL   ?PUSH_XSTACK_I_TWO
   \   00033A   12....       LCALL   ?Subroutine6 & 0xFFFF
   \                     ??CrossCallReturnLabel_18:
   \   00033D   12....       LCALL   ?DEALLOC_XSTACK8
   \   000340   E9           MOV     A,R1
   \   000341   700A         JNZ     ??SampleApp_SendPointMessage_9
    605            {
    606              HalUARTWrite(0, "VolMsg Success\n", sizeof("VolMsg Success\n")-1);
   \   000343                ; Setup parameters for call to function HalUARTWrite
   \   000343   7C0F         MOV     R4,#0xf
   \   000345   7D00         MOV     R5,#0x0
   \   000347   7A..         MOV     R2,#`?<Constant "VolMsg Success\\n">` & 0xff
   \   000349   7B..         MOV     R3,#(`?<Constant "VolMsg Success\\n">` >> 8) & 0xff
   \   00034B   8008         SJMP    ??SampleApp_SendPointMessage_10
    607            }
    608            else
    609            {
    610              // Error occurred in request to send.
    611              HalUARTWrite(0, "VolMsg Failed\n", sizeof("VolMsg Failed\n")-1);
   \                     ??SampleApp_SendPointMessage_9:
   \   00034D                ; Setup parameters for call to function HalUARTWrite
   \   00034D   7C0E         MOV     R4,#0xe
   \   00034F   7D00         MOV     R5,#0x0
   \   000351   7A..         MOV     R2,#`?<Constant "VolMsg Failed\\n">` & 0xff
   \   000353   7B..         MOV     R3,#(`?<Constant "VolMsg Failed\\n">` >> 8) & 0xff
   \                     ??SampleApp_SendPointMessage_10:
   \   000355   7900         MOV     R1,#0x0
   \   000357   12....       LCALL   ??HalUARTWrite?relay
    612            }  
    613          }
   \   00035A   7443         MOV     A,#0x43
   \   00035C   12....       LCALL   ?DEALLOC_XSTACK8
   \   00035F   7F08         MOV     R7,#0x8
   \   000361   02....       LJMP    ?BANKED_LEAVE_XDATA
   \   000364                REQUIRE P0DIR
   \   000364                REQUIRE P0INP
   \   000364                REQUIRE ADCCON3
   \   000364                REQUIRE ADCCON1
   \   000364                REQUIRE ADCL
   \   000364                REQUIRE ADCH

   \                                 In  segment BANKED_CODE, align 1, keep-with-next
   \                     ?Subroutine5:
   \   000000   E582         MOV     A,DPL
   \   000002   28           ADD     A,R0
   \   000003   F582         MOV     DPL,A
   \   000005   E583         MOV     A,DPH
   \   000007   3400         ADDC    A,#0x0
   \   000009   F583         MOV     DPH,A
   \   00000B   E0           MOVX    A,@DPTR
   \   00000C   22           RET

   \                                 In  segment BANKED_CODE, align 1, keep-with-next
   \                     ?Subroutine4:
   \   000000   E582         MOV     A,DPL
   \   000002   25..         ADD     A,?V0 + 0
   \   000004   F582         MOV     DPL,A
   \   000006   E583         MOV     A,DPH
   \   000008   35..         ADDC    A,?V0 + 1
   \   00000A   F583         MOV     DPH,A
   \   00000C   E0           MOVX    A,@DPTR
   \   00000D   22           RET

   \                                 In  segment BANKED_CODE, align 1, keep-with-next
   \                     ?Subroutine3:
   \   000000   F0           MOVX    @DPTR,A
   \   000001   EC           MOV     A,R4
   \   000002   F8           MOV     R0,A
   \   000003   ED           MOV     A,R5
   \   000004   F9           MOV     R1,A
   \   000005   7AE8         MOV     R2,#-0x18
   \   000007   7B03         MOV     R3,#0x3
   \   000009   22           RET

   \                                 In  segment BANKED_CODE, align 1, keep-with-next
   \                     ?Subroutine1:
   \   000000   AA82         MOV     R2,DPL
   \   000002   AB83         MOV     R3,DPH
   \   000004   7900         MOV     R1,#0x0
   \   000006   12....       LCALL   ??HalUARTWrite?relay
   \   000009                ; Setup parameters for call to function HalUARTWrite
   \   000009                ; Setup parameters for call to function HalUARTWrite
   \   000009   7C01         MOV     R4,#0x1
   \   00000B   7D00         MOV     R5,#0x0
   \   00000D   7A..         MOV     R2,#`?<Constant "\\n">` & 0xff
   \   00000F   7B..         MOV     R3,#(`?<Constant "\\n">` >> 8) & 0xff
   \   000011   7900         MOV     R1,#0x0
   \   000013   12....       LCALL   ??HalUARTWrite?relay
   \   000016                ; Setup parameters for call to function AF_DataRequest
   \   000016                ; Setup parameters for call to function AF_DataRequest
   \   000016   75..1E       MOV     ?V0 + 0,#0x1e
   \   000019   78..         MOV     R0,#?V0 + 0
   \   00001B   22           RET

   \                                 In  segment BANK_RELAYS, align 1
   \                     ??SampleApp_Init?relay:
   \   000000   12....       LCALL   ?BDISPATCH
   \   000003   ......       DC24    SampleApp_Init

   \                                 In  segment BANK_RELAYS, align 1
   \                     ??SampleApp_ProcessEvent?relay:
   \   000000   12....       LCALL   ?BDISPATCH
   \   000003   ......       DC24    SampleApp_ProcessEvent

   \                                 In  segment BANK_RELAYS, align 1
   \                     ??SampleApp_HandleKeys?relay:
   \   000000   12....       LCALL   ?BDISPATCH
   \   000003   ......       DC24    SampleApp_HandleKeys

   \                                 In  segment BANK_RELAYS, align 1
   \                     ??SampleApp_MessageMSGCB?relay:
   \   000000   12....       LCALL   ?BDISPATCH
   \   000003   ......       DC24    SampleApp_MessageMSGCB

   \                                 In  segment BANK_RELAYS, align 1
   \                     ??SampleApp_SendPeriodicMessage?relay:
   \   000000   12....       LCALL   ?BDISPATCH
   \   000003   ......       DC24    SampleApp_SendPeriodicMessage

   \                                 In  segment BANK_RELAYS, align 1
   \                     ??SampleApp_SendFlashMessage?relay:
   \   000000   12....       LCALL   ?BDISPATCH
   \   000003   ......       DC24    SampleApp_SendFlashMessage

   \                                 In  segment BANK_RELAYS, align 1
   \                     ??SampleApp_SendPointMessage?relay:
   \   000000   12....       LCALL   ?BDISPATCH
   \   000003   ......       DC24    SampleApp_SendPointMessage

   \                                 In  segment XDATA_ROM_C, align 1
   \                     `?<Constant "Ep Init\\n">`:
   \   000000   45702049     DB "Ep Init\012"
   \            6E69740A
   \            00      

   \                                 In  segment XDATA_ROM_C, align 1
   \                     `?<Constant "Group 1">`:
   \   000000   47726F75     DB "Group 1"
   \            70203100

   \                                 In  segment XDATA_ROM_C, align 1
   \                     `?<Constant "Key Changed\\n">`:
   \   000000   4B657920     DB "Key Changed\012"
   \            4368616E
   \            6765640A
   \            00      

   \                                 In  segment XDATA_ROM_C, align 1
   \                     `?<Constant "Data Come\\n">`:
   \   000000   44617461     DB "Data Come\012"
   \            20436F6D
   \            650A00  

   \                                 In  segment XDATA_ROM_C, align 1
   \                     `?<Constant "Out\\n">`:
   \   000000   4F75740A     DB "Out\012"
   \            00      

   \                                 In  segment XDATA_ROM_C, align 1
   \                     `?<Constant "In Handlekey\\n">`:
   \   000000   496E2048     DB "In Handlekey\012"
   \            616E646C
   \            656B6579
   \            0A00    

   \                                 In  segment XDATA_ROM_C, align 1
   \                     `?<Constant "In MSGCB\\n">`:
   \   000000   496E204D     DB "In MSGCB\012"
   \            53474342
   \            0A00    

   \                                 In  segment XDATA_ROM_C, align 1
   \                     `?<Constant "From Ep\\n">`:
   \   000000   46726F6D     DB "From Ep\012"
   \            2045700A
   \            00      

   \                                 In  segment XDATA_ROM_C, align 1
   \                     `?<Constant "In Ep SampleApp_SendP...">`:
   \   000000   496E2045     DB "In Ep SampleApp_SendPeriodMessage : Succeed\012"
   \            70205361
   \            6D706C65
   \            4170705F
   \            53656E64
   \            50657269
   \            6F644D65
   \            73736167
   \            65203A20
   \            53756363
   \            6565640A
   \            00      

   \                                 In  segment XDATA_ROM_C, align 1
   \                     `?<Constant "In Ep SampleApp_SendP...">_1`:
   \   000000   496E2045     DB "In Ep SampleApp_SendPeriodMessage : Failed\012"
   \            70205361
   \            6D706C65
   \            4170705F
   \            53656E64
   \            50657269
   \            6F644D65
   \            73736167
   \            65203A20
   \            4661696C
   \            65640A00

   \                                 In  segment XDATA_ROM_C, align 1
   \                     `?<Constant "PointMsg\\n">`:
   \   000000   506F696E     DB "PointMsg\012"
   \            744D7367
   \            0A00    

   \                                 In  segment XDATA_ROM_C, align 1
   \                     `?<Constant "0124567889ABCDEF">`:
   \   000000   30313234     DB 30H, 31H, 32H, 34H, 35H, 36H, 37H, 38H
   \            35363738
   \   000008   38394142     DB 38H, 39H, 41H, 42H, 43H, 44H, 45H, 46H
   \            43444546

   \                                 In  segment XDATA_ROM_C, align 1
   \                     `?<Constant "DevMsg Success\\n">`:
   \   000000   4465764D     DB "DevMsg Success\012"
   \            73672053
   \            75636365
   \            73730A00

   \                                 In  segment XDATA_ROM_C, align 1
   \                     `?<Constant "DevMsg Failed\\n">`:
   \   000000   4465764D     DB "DevMsg Failed\012"
   \            73672046
   \            61696C65
   \            640A00  

   \                                 In  segment XDATA_ROM_C, align 1
   \                     `?<Constant "TypMsg Success\\n">`:
   \   000000   5479704D     DB "TypMsg Success\012"
   \            73672053
   \            75636365
   \            73730A00

   \                                 In  segment XDATA_ROM_C, align 1
   \                     `?<Constant "TypMsg Failed\\n">`:
   \   000000   5479704D     DB "TypMsg Failed\012"
   \            73672046
   \            61696C65
   \            640A00  

   \                                 In  segment XDATA_ROM_C, align 1
   \                     `?<Constant "\\n">`:
   \   000000   0A00         DB "\012"

   \                                 In  segment XDATA_ROM_C, align 1
   \                     `?<Constant "TempMsg Success\\n">`:
   \   000000   54656D70     DB "TempMsg Success\012"
   \            4D736720
   \            53756363
   \            6573730A
   \            00      

   \                                 In  segment XDATA_ROM_C, align 1
   \                     `?<Constant "TempMsg Failed\\n">`:
   \   000000   54656D70     DB "TempMsg Failed\012"
   \            4D736720
   \            4661696C
   \            65640A00

   \                                 In  segment XDATA_ROM_C, align 1
   \                     `?<Constant "VolMsg Success\\n">`:
   \   000000   566F6C4D     DB "VolMsg Success\012"
   \            73672053
   \            75636365
   \            73730A00

   \                                 In  segment XDATA_ROM_C, align 1
   \                     `?<Constant "VolMsg Failed\\n">`:
   \   000000   566F6C4D     DB "VolMsg Failed\012"
   \            73672046
   \            61696C65
   \            640A00  

   \                                 In  segment XDATA_ROM_C, align 1
   \                     __Constant_44ffe000:
   \   000000   00E0FF44     DD 44FFE000H

   \                                 In  segment XDATA_ROM_C, align 1
   \                     __Constant_40a00000:
   \   000000   0000A040     DD 40A00000H

   \                                 In  segment XDATA_ROM_C, align 1
   \                     __Constant_42c80000:
   \   000000   0000C842     DD 42C80000H

   Maximum stack usage in bytes:

     Function                       ISTACK PSTACK XSTACK
     --------                       ------ ------ ------
     SampleApp_HandleKeys               0      0     22
       -> SampleApp_SendFlashMessage
                                        0      0     20
       -> aps_FindGroup                 0      0     20
       -> aps_RemoveGroup               0      0     20
       -> aps_AddGroup                  0      0     20
       -> HalUARTWrite                  0      0     20
       -> HalLedBlink                   0      0     20
     SampleApp_Init                     0      0     14
       -> MT_UartInit                   0      0     22
       -> MT_UartRegisterTaskID         0      0     22
       -> HalUARTWrite                  0      0     22
       -> afRegister                    0      0     22
       -> RegisterForKeys               0      0     22
       -> osal_memcpy                   0      0     28
       -> aps_AddGroup                  0      0     22
     SampleApp_MessageMSGCB             0      0     22
       -> HalUARTWrite                  0      0     20
       -> HalLedBlink                   0      0     20
     SampleApp_ProcessEvent             0      0     12
       -> osal_msg_receive              0      0     24
       -> HalUARTWrite                  0      0     24
       -> osal_msg_deallocate           0      0     24
       -> osal_msg_receive              0      0     24
       -> HalUARTWrite                  0      0     24
       -> SampleApp_HandleKeys          0      0     24
       -> HalUARTWrite                  0      0     24
       -> SampleApp_MessageMSGCB        0      0     24
       -> osal_start_timerEx            0      0     24
       -> SampleApp_SendPointMessage
                                        0      0     24
       -> osal_rand                     0      0     24
       -> osal_start_timerEx            0      0     24
     SampleApp_SendFlashMessage         1      0     32
       -> AF_DataRequest                0      0     44
     SampleApp_SendPeriodicMessage      2      0     28
       -> AF_DataRequest                0      0     56
       -> HalUARTWrite                  0      0     38
       -> HalUARTWrite                  0      0     38
       -> HalUARTWrite                  0      0     38
     SampleApp_SendPointMessage         2      0    104
       -> HalUARTWrite                  0      0    166
       -> AF_DataRequest                0      0    184
       -> HalUARTWrite                  0      0    166
       -> HalUARTWrite                  0      0    166
       -> AF_DataRequest                0      0    184
       -> HalUARTWrite                  0      0    166
       -> HalUARTWrite                  0      0    166
       -> Temp_test                     0      0    166
       -> HalUARTWrite                  0      0    166
       -> HalUARTWrite                  0      0    166
       -> AF_DataRequest                0      0    184
       -> HalUARTWrite                  0      0    166
       -> HalUARTWrite                  0      0    166
       -> HalUARTWrite                  0      0    166
       -> HalUARTWrite                  0      0    166
       -> AF_DataRequest                0      0    184
       -> HalUARTWrite                  0      0    166
       -> HalUARTWrite                  0      0    166


   Segment part sizes:

     Function/Label                           Bytes
     --------------                           -----
     P0INP                                       1
     ADCCON1                                     1
     ADCCON3                                     1
     ADCL                                        1
     ADCH                                        1
     P0DIR                                       1
     SampleApp_ClusterList                       6
     SampleApp_SimpleDesc                       12
     SampleApp_epDesc                            6
     SampleApp_TaskID                            1
     SampleApp_NwkState                          1
     SampleApp_TransID                           1
     SampleApp_Periodic_DstAddr                 12
     SampleApp_Flash_DstAddr                    12
     SampleApp_Point_DstAddr                    12
     SampleApp_Group                            18
     SampleAppPeriodicCounter                    1
     SampleAppFlashCounter                       1
     SampleApp_Init                            189
     SampleApp_ProcessEvent                    235
     SampleApp_HandleKeys                       92
     ??Subroutine7_0                             5
     SampleApp_MessageMSGCB                    110
     ?Subroutine0                                3
     SampleApp_SendPeriodicMessage             151
     ??Subroutine8_0                             6
     SampleApp_SendFlashMessage                113
     ?Subroutine2                                7
     ?Subroutine6                               10
     SampleApp_SendPointMessage                868
     ?Subroutine5                               13
     ?Subroutine4                               14
     ?Subroutine3                               10
     ?Subroutine1                               28
     ??SampleApp_Init?relay                      6
     ??SampleApp_ProcessEvent?relay              6
     ??SampleApp_HandleKeys?relay                6
     ??SampleApp_MessageMSGCB?relay              6
     ??SampleApp_SendPeriodicMessage?relay       6
     ??SampleApp_SendFlashMessage?relay          6
     ??SampleApp_SendPointMessage?relay          6
     ?<Constant "Ep Init\n">                     9
     ?<Constant "Group 1">                       8
     ?<Constant "Key Changed\n">                13
     ?<Constant "Data Come\n">                  11
     ?<Constant "Out\n">                         5
     ?<Constant "In Handlekey\n">               14
     ?<Constant "In MSGCB\n">                   10
     ?<Constant "From Ep\n">                     9
     ?<Constant "In Ep SampleApp_SendP...">     45
     ?<Constant "In Ep SampleApp_SendP...">_1   44
     ?<Constant "PointMsg\n">                   10
     ?<Constant "0124567889ABCDEF">             16
     ?<Constant "DevMsg Success\n">             16
     ?<Constant "DevMsg Failed\n">              15
     ?<Constant "TypMsg Success\n">             16
     ?<Constant "TypMsg Failed\n">              15
     ?<Constant "\n">                            2
     ?<Constant "TempMsg Success\n">            17
     ?<Constant "TempMsg Failed\n">             16
     ?<Constant "VolMsg Success\n">             16
     ?<Constant "VolMsg Failed\n">              15
     __Constant_44ffe000                         4
     __Constant_40a00000                         4
     __Constant_42c80000                         4

 
 1 854 bytes in segment BANKED_CODE
    42 bytes in segment BANK_RELAYS
     6 bytes in segment SFR_AN
   352 bytes in segment XDATA_ROM_C
    65 bytes in segment XDATA_Z
 
 1 896 bytes of CODE  memory
   340 bytes of CONST memory (+ 12 bytes shared)
     0 bytes of DATA  memory (+  6 bytes shared)
    65 bytes of XDATA memory

Errors: none
Warnings: 1
