###############################################################################
#                                                                             #
# IAR C/C++ Compiler V8.10.1.10194/W32 for 8051         02/Oct/2014  01:10:39 #
# Copyright 2004-2011 IAR Systems AB.                                         #
#                                                                             #
#    Core               =  plain                                              #
#    Code model         =  banked                                             #
#    Data model         =  large                                              #
#    Calling convention =  xdata reentrant                                    #
#    Constant location  =  data_rom                                           #
#    Dptr setup         =  1,16                                               #
#    Source file        =  D:\ZStack-CC2530-2.5.1a\Projects\zstack\Samples\Sa #
#                          mpleApp - 副本\Source\SampleApp.c                  #
#    Command line       =  -f "D:\ZStack-CC2530-2.5.1a\Projects\zstack\Sample #
#                          s\SampleApp - 副本\CC2530DB\..\..\..\Tools\CC2530D #
#                          B\f8wEndev.cfg" (-DCPU32MHZ -DROOT=__near_func     #
#                          -DMAC_CFG_TX_DATA_MAX=3 -DMAC_CFG_TX_MAX=6         #
#                          -DMAC_CFG_RX_MAX=3) -f "D:\ZStack-CC2530-2.5.1a\Pr #
#                          ojects\zstack\Samples\SampleApp -                  #
#                          副本\CC2530DB\..\..\..\Tools\CC2530DB\f8wConfig.cf #
#                          g" (-DZIGBEEPRO -DSECURE=0 -DZG_SECURE_DYNAMIC=0   #
#                          -DREFLECTOR -DDEFAULT_CHANLIST=0x00000800          #
#                          -DZDAPP_CONFIG_PAN_ID=0xFFFF                       #
#                          -DNWK_START_DELAY=100 -DEXTENDED_JOINING_RANDOM_MA #
#                          SK=0x007F -DBEACON_REQUEST_DELAY=100               #
#                          -DBEACON_REQ_DELAY_MASK=0x00FF                     #
#                          -DLINK_STATUS_JITTER_MASK=0x007F                   #
#                          -DROUTE_EXPIRY_TIME=30 -DAPSC_ACK_WAIT_DURATION_PO #
#                          LLED=3000 -DNWK_INDIRECT_MSG_TIMEOUT=7             #
#                          -DMAX_RREQ_ENTRIES=8 -DAPSC_MAX_FRAME_RETRIES=3    #
#                          -DNWK_MAX_DATA_RETRIES=2                           #
#                          -DMAX_POLL_FAILURE_RETRIES=2 -DMAX_BCAST=9         #
#                          -DAPS_MAX_GROUPS=16 -DMAX_RTG_ENTRIES=40           #
#                          -DNWK_MAX_BINDING_ENTRIES=4                        #
#                          -DMAX_BINDING_CLUSTER_IDS=4 "-DDEFAULT_KEY={0x01,  #
#                          0x03, 0x05, 0x07, 0x09, 0x0B, 0x0D, 0x0F, 0x00,    #
#                          0x02, 0x04, 0x06, 0x08, 0x0A, 0x0C, 0x0D}"         #
#                          -DMAC_MAX_FRAME_SIZE=116                           #
#                          -DZDNWKMGR_MIN_TRANSMISSIONS=20 "-DCONST=const     #
#                          __code" -DGENERIC=__generic                        #
#                          -DRFD_RCVC_ALWAYS_ON=FALSE -DPOLL_RATE=1000        #
#                          -DQUEUED_POLL_RATE=100 -DRESPONSE_POLL_RATE=100)   #
#                          -DREJOIN_POLL_RATE=440 "D:\ZStack-CC2530-2.5.1a\Pr #
#                          ojects\zstack\Samples\SampleApp -                  #
#                          副本\Source\SampleApp.c" -D xNWK_AUTO_POLL -D      #
#                          ZTOOL_P1 -D xMT_TASK -D xMT_SYS_FUNC -D            #
#                          xMT_ZDO_FUNC -D xLCD_SUPPORTED=DEBUG -lC           #
#                          "D:\ZStack-CC2530-2.5.1a\Projects\zstack\Samples\S #
#                          ampleApp - 副本\CC2530DB\EndDeviceEB\List\" -lA    #
#                          "D:\ZStack-CC2530-2.5.1a\Projects\zstack\Samples\S #
#                          ampleApp - 副本\CC2530DB\EndDeviceEB\List\"        #
#                          --diag_suppress Pe001,Pa010 -o                     #
#                          "D:\ZStack-CC2530-2.5.1a\Projects\zstack\Samples\S #
#                          ampleApp - 副本\CC2530DB\EndDeviceEB\Obj\" -e      #
#                          --no_code_motion --debug --core=plain --dptr=16,1  #
#                          --data_model=large --code_model=banked             #
#                          --calling_convention=xdata_reentrant               #
#                          --place_constants=data_rom --nr_virtual_regs 16    #
#                          -I "D:\ZStack-CC2530-2.5.1a\Projects\zstack\Sample #
#                          s\SampleApp - 副本\CC2530DB\" -I                   #
#                          "D:\ZStack-CC2530-2.5.1a\Projects\zstack\Samples\S #
#                          ampleApp - 副本\CC2530DB\..\Source\" -I            #
#                          "D:\ZStack-CC2530-2.5.1a\Projects\zstack\Samples\S #
#                          ampleApp - 副本\CC2530DB\..\..\..\ZMain\TI2530DB\" #
#                           -I "D:\ZStack-CC2530-2.5.1a\Projects\zstack\Sampl #
#                          es\SampleApp - 副本\CC2530DB\..\..\..\..\..\Compon #
#                          ents\hal\include\" -I "D:\ZStack-CC2530-2.5.1a\Pro #
#                          jects\zstack\Samples\SampleApp -                   #
#                          副本\CC2530DB\..\..\..\..\..\Components\hal\target #
#                          \CC2530EB\" -I "D:\ZStack-CC2530-2.5.1a\Projects\z #
#                          stack\Samples\SampleApp -                          #
#                          副本\CC2530DB\..\..\..\..\..\Components\mac\includ #
#                          e\" -I "D:\ZStack-CC2530-2.5.1a\Projects\zstack\Sa #
#                          mples\SampleApp - 副本\CC2530DB\..\..\..\..\..\Com #
#                          ponents\mac\high_level\" -I                        #
#                          "D:\ZStack-CC2530-2.5.1a\Projects\zstack\Samples\S #
#                          ampleApp - 副本\CC2530DB\..\..\..\..\..\Components #
#                          \mac\low_level\srf04\" -I                          #
#                          "D:\ZStack-CC2530-2.5.1a\Projects\zstack\Samples\S #
#                          ampleApp - 副本\CC2530DB\..\..\..\..\..\Components #
#                          \mac\low_level\srf04\single_chip\" -I              #
#                          "D:\ZStack-CC2530-2.5.1a\Projects\zstack\Samples\S #
#                          ampleApp - 副本\CC2530DB\..\..\..\..\..\Components #
#                          \mt\" -I "D:\ZStack-CC2530-2.5.1a\Projects\zstack\ #
#                          Samples\SampleApp - 副本\CC2530DB\..\..\..\..\..\C #
#                          omponents\osal\include\" -I                        #
#                          "D:\ZStack-CC2530-2.5.1a\Projects\zstack\Samples\S #
#                          ampleApp - 副本\CC2530DB\..\..\..\..\..\Components #
#                          \services\saddr\" -I "D:\ZStack-CC2530-2.5.1a\Proj #
#                          ects\zstack\Samples\SampleApp -                    #
#                          副本\CC2530DB\..\..\..\..\..\Components\services\s #
#                          data\" -I "D:\ZStack-CC2530-2.5.1a\Projects\zstack #
#                          \Samples\SampleApp - 副本\CC2530DB\..\..\..\..\..\ #
#                          Components\stack\af\" -I                           #
#                          "D:\ZStack-CC2530-2.5.1a\Projects\zstack\Samples\S #
#                          ampleApp - 副本\CC2530DB\..\..\..\..\..\Components #
#                          \stack\nwk\" -I "D:\ZStack-CC2530-2.5.1a\Projects\ #
#                          zstack\Samples\SampleApp -                         #
#                          副本\CC2530DB\..\..\..\..\..\Components\stack\sapi #
#                          \" -I "D:\ZStack-CC2530-2.5.1a\Projects\zstack\Sam #
#                          ples\SampleApp - 副本\CC2530DB\..\..\..\..\..\Comp #
#                          onents\stack\sec\" -I "D:\ZStack-CC2530-2.5.1a\Pro #
#                          jects\zstack\Samples\SampleApp -                   #
#                          副本\CC2530DB\..\..\..\..\..\Components\stack\sys\ #
#                          " -I "D:\ZStack-CC2530-2.5.1a\Projects\zstack\Samp #
#                          les\SampleApp - 副本\CC2530DB\..\..\..\..\..\Compo #
#                          nents\stack\zdo\" -I "D:\ZStack-CC2530-2.5.1a\Proj #
#                          ects\zstack\Samples\SampleApp -                    #
#                          副本\CC2530DB\..\..\..\..\..\Components\zmac\" -I  #
#                          "D:\ZStack-CC2530-2.5.1a\Projects\zstack\Samples\S #
#                          ampleApp - 副本\CC2530DB\..\..\..\..\..\Components #
#                          \zmac\f8w\" -Ohz --require_prototypes              #
#    List file          =  D:\ZStack-CC2530-2.5.1a\Projects\zstack\Samples\Sa #
#                          mpleApp - 副本\CC2530DB\EndDeviceEB\List\SampleApp #
#                          .lst                                               #
#    Object file        =  D:\ZStack-CC2530-2.5.1a\Projects\zstack\Samples\Sa #
#                          mpleApp - 副本\CC2530DB\EndDeviceEB\Obj\SampleApp. #
#                          r51                                                #
#                                                                             #
#                                                                             #
###############################################################################

D:\ZStack-CC2530-2.5.1a\Projects\zstack\Samples\SampleApp - 副本\Source\SampleApp.c
      1          /**************************************************************************************************
      2            Filename:       SampleApp.c
      3            Revised:        $Date: 2009-03-18 15:56:27 -0700 (Wed, 18 Mar 2009) $
      4            Revision:       $Revision: 19453 $
      5          
      6            Description:    Sample Application (no Profile).
      7          
      8          
      9            Copyright 2007 Texas Instruments Incorporated. All rights reserved.
     10          
     11            IMPORTANT: Your use of this Software is limited to those specific rights
     12            granted under the terms of a software license agreement between the user
     13            who downloaded the software, his/her employer (which must be your employer)
     14            and Texas Instruments Incorporated (the "License").  You may not use this
     15            Software unless you agree to abide by the terms of the License. The License
     16            limits your use, and you acknowledge, that the Software may not be modified,
     17            copied or distributed unless embedded on a Texas Instruments microcontroller
     18            or used solely and exclusively in conjunction with a Texas Instruments radio
     19            frequency transceiver, which is integrated into your product.  Other than for
     20            the foregoing purpose, you may not use, reproduce, copy, prepare derivative
     21            works of, modify, distribute, perform, display or sell this Software and/or
     22            its documentation for any purpose.
     23          
     24            YOU FURTHER ACKNOWLEDGE AND AGREE THAT THE SOFTWARE AND DOCUMENTATION ARE
     25            PROVIDED AS IS?WITHOUT WARRANTY OF ANY KIND, EITHER EXPRESS OR IMPLIED,
     26            INCLUDING WITHOUT LIMITATION, ANY WARRANTY OF MERCHANTABILITY, TITLE,
     27            NON-INFRINGEMENT AND FITNESS FOR A PARTICULAR PURPOSE. IN NO EVENT SHALL
     28            TEXAS INSTRUMENTS OR ITS LICENSORS BE LIABLE OR OBLIGATED UNDER CONTRACT,
     29            NEGLIGENCE, STRICT LIABILITY, CONTRIBUTION, BREACH OF WARRANTY, OR OTHER
     30            LEGAL EQUITABLE THEORY ANY DIRECT OR INDIRECT DAMAGES OR EXPENSES
     31            INCLUDING BUT NOT LIMITED TO ANY INCIDENTAL, SPECIAL, INDIRECT, PUNITIVE
     32            OR CONSEQUENTIAL DAMAGES, LOST PROFITS OR LOST DATA, COST OF PROCUREMENT
     33            OF SUBSTITUTE GOODS, TECHNOLOGY, SERVICES, OR ANY CLAIMS BY THIRD PARTIES
     34            (INCLUDING BUT NOT LIMITED TO ANY DEFENSE THEREOF), OR OTHER SIMILAR COSTS.
     35          
     36            Should you have any questions regarding your right to use this Software,
     37            contact Texas Instruments Incorporated at www.TI.com.
     38          **************************************************************************************************/
     39          
     40          /*********************************************************************
     41            This application isn't intended to do anything useful, it is
     42            intended to be a simple example of an application's structure.
     43          
     44            This application sends it's messages either as broadcast or
     45            broadcast filtered group messages.  The other (more normal)
     46            message addressing is unicast.  Most of the other sample
     47            applications are written to support the unicast message model.
     48          
     49            Key control:
     50              SW1:  Sends a flash command to all devices in Group 1.
     51              SW2:  Adds/Removes (toggles) this device in and out
     52                    of Group 1.  This will enable and disable the
     53                    reception of the flash command.
     54          *********************************************************************/
     55          
     56          /*********************************************************************
     57           * INCLUDES
     58           */
     59          #include "OSAL.h"
     60          #include "ZGlobals.h"
     61          #include "AF.h"
     62          #include "aps_groups.h"
     63          #include "ZDApp.h"
     64          
     65          #include "SampleApp.h"
     66          #include "SampleAppHw.h"
     67          
     68          #include "OnBoard.h"
     69          
     70          /* HAL */
     71          #include "hal_lcd.h"
     72          #include "hal_led.h"
     73          #include "hal_key.h"
     74          #include "MT_UART.h"
     75          #include "MT.h"
     76          
     77          /*********************************************************************
     78           * MACROS
     79           */
     80          
     81          /*********************************************************************
     82           * CONSTANTS
     83           */
     84          
     85          /*********************************************************************
     86           * TYPEDEFS
     87           */
     88          
     89          /*********************************************************************
     90           * GLOBAL VARIABLES
     91           */
     92          
     93          // This list should be filled with Application specific Cluster IDs.

   \                                 In  segment XDATA_ROM_C, align 1
     94          const cId_t SampleApp_ClusterList[SAMPLEAPP_MAX_CLUSTERS] =
   \                     SampleApp_ClusterList:
   \   000000   0100         DW 1
   \   000002   0200         DW 2
   \   000004   0000         DW 0
   \   000006   0000         DW 0
     95          {
     96            SAMPLEAPP_PERIODIC_CLUSTERID,
     97            SAMPLEAPP_FLASH_CLUSTERID
     98          };
     99          

   \                                 In  segment XDATA_ROM_C, align 1
    100          const SimpleDescriptionFormat_t SampleApp_SimpleDesc =
   \                     SampleApp_SimpleDesc:
   \   000000   14           DB 20
   \   000001   080F         DW 3848
   \   000003   0100         DW 1
   \   000005   00           DB 0
   \   000006   04           DB 4
   \   000007   ....         DW SampleApp_ClusterList
   \   000009   04           DB 4
   \   00000A   ....         DW SampleApp_ClusterList
    101          {
    102            SAMPLEAPP_ENDPOINT,              //  int Endpoint;
    103            SAMPLEAPP_PROFID,                //  uint16 AppProfId[2];
    104            SAMPLEAPP_DEVICEID,              //  uint16 AppDeviceId[2];
    105            SAMPLEAPP_DEVICE_VERSION,        //  int   AppDevVer:4;
    106            SAMPLEAPP_FLAGS,                 //  int   AppFlags:4;
    107            SAMPLEAPP_MAX_CLUSTERS,          //  uint8  AppNumInClusters;
    108            (cId_t *)SampleApp_ClusterList,  //  uint8 *pAppInClusterList;
    109            SAMPLEAPP_MAX_CLUSTERS,          //  uint8  AppNumInClusters;
    110            (cId_t *)SampleApp_ClusterList   //  uint8 *pAppInClusterList;
    111          };
    112          
    113          // This is the Endpoint/Interface description.  It is defined here, but
    114          // filled-in in SampleApp_Init().  Another way to go would be to fill
    115          // in the structure here and make it a "const" (in code space).  The
    116          // way it's defined in this sample app it is define in RAM.

   \                                 In  segment XDATA_Z, align 1, keep-with-next
    117          endPointDesc_t SampleApp_epDesc;
   \                     SampleApp_epDesc:
   \   000000                DS 6
   \   000006                REQUIRE __INIT_XDATA_Z
    118          
    119          /*********************************************************************
    120           * EXTERNAL VARIABLES
    121           */
    122          
    123          /*********************************************************************
    124           * EXTERNAL FUNCTIONS
    125           */
    126          
    127          /*********************************************************************
    128           * LOCAL VARIABLES
    129           */

   \                                 In  segment XDATA_Z, align 1, keep-with-next
    130          uint8 SampleApp_TaskID;   // Task ID for internal task/event processing
   \                     SampleApp_TaskID:
   \   000000                DS 1
   \   000001                REQUIRE __INIT_XDATA_Z
    131                                    // This variable will be received when
    132                                    // SampleApp_Init() is called.

   \                                 In  segment XDATA_Z, align 1, keep-with-next
    133          devStates_t SampleApp_NwkState;
   \                     SampleApp_NwkState:
   \   000000                DS 1
   \   000001                REQUIRE __INIT_XDATA_Z
    134          

   \                                 In  segment XDATA_Z, align 1, keep-with-next
    135          uint8 SampleApp_TransID;  // This is the unique message ID (counter)
   \                     SampleApp_TransID:
   \   000000                DS 1
   \   000001                REQUIRE __INIT_XDATA_Z
    136          

   \                                 In  segment XDATA_Z, align 1, keep-with-next
    137          afAddrType_t SampleApp_Periodic_DstAddr;
   \                     SampleApp_Periodic_DstAddr:
   \   000000                DS 12
   \   00000C                REQUIRE __INIT_XDATA_Z

   \                                 In  segment XDATA_Z, align 1, keep-with-next
    138          afAddrType_t SampleApp_Flash_DstAddr;
   \                     SampleApp_Flash_DstAddr:
   \   000000                DS 12
   \   00000C                REQUIRE __INIT_XDATA_Z

   \                                 In  segment XDATA_Z, align 1, keep-with-next
    139          afAddrType_t Point_To_Point_DstAddr;
   \                     Point_To_Point_DstAddr:
   \   000000                DS 12
   \   00000C                REQUIRE __INIT_XDATA_Z
    140          

   \                                 In  segment XDATA_Z, align 1, keep-with-next
    141          aps_Group_t SampleApp_Group;
   \                     SampleApp_Group:
   \   000000                DS 18
   \   000012                REQUIRE __INIT_XDATA_Z
    142          

   \                                 In  segment XDATA_Z, align 1, keep-with-next
    143          uint8 SampleAppPeriodicCounter = 0;
   \                     SampleAppPeriodicCounter:
   \   000000                DS 1
   \   000001                REQUIRE __INIT_XDATA_Z

   \                                 In  segment XDATA_Z, align 1, keep-with-next
    144          uint8 SampleAppFlashCounter = 0;
   \                     SampleAppFlashCounter:
   \   000000                DS 1
   \   000001                REQUIRE __INIT_XDATA_Z
    145          
    146          /*********************************************************************
    147           * LOCAL FUNCTIONS
    148           */
    149          void SampleApp_HandleKeys( uint8 shift, uint8 keys );
    150          void SampleApp_MessageMSGCB( afIncomingMSGPacket_t *pckt );
    151          void SampleApp_SendPeriodicMessage( void );
    152          void SampleApp_SendFlashMessage( uint16 flashTime );
    153          void SampleApp_SerialCMD(mtOSALSerialData_t *cmdMsg);
    154          void SampleApp_SendPointToPointMessage(void);
    155          void SampleApp_SendGroupMessage(void);
    156          
    157          /*********************************************************************
    158           * NETWORK LAYER CALLBACKS
    159           */
    160          
    161          /*********************************************************************
    162           * PUBLIC FUNCTIONS
    163           */
    164          
    165          /*********************************************************************
    166           * @fn      SampleApp_Init
    167           *
    168           * @brief   Initialization function for the Generic App Task.
    169           *          This is called during initialization and should contain
    170           *          any application specific initialization (ie. hardware
    171           *          initialization/setup, table initialization, power up
    172           *          notificaiton ... ).
    173           *
    174           * @param   task_id - the ID assigned by OSAL.  This ID should be
    175           *                    used to send messages and set timers.
    176           *
    177           * @return  none
    178           */

   \                                 In  segment BANKED_CODE, align 1, keep-with-next
    179          void SampleApp_Init( uint8 task_id )
   \                     SampleApp_Init:
    180          {
   \   000000   74F5         MOV     A,#-0xb
   \   000002   12....       LCALL   ?BANKED_ENTER_XDATA
   \   000005                ; Saved register size: 11
   \   000005                ; Auto size: 0
   \   000005   E9           MOV     A,R1
   \   000006   FE           MOV     R6,A
    181            SampleApp_TaskID = task_id;
   \   000007   90....       MOV     DPTR,#SampleApp_TaskID
   \   00000A   F0           MOVX    @DPTR,A
    182            SampleApp_NwkState = DEV_INIT;
   \   00000B   90....       MOV     DPTR,#SampleApp_NwkState
   \   00000E   7401         MOV     A,#0x1
   \   000010   F0           MOVX    @DPTR,A
    183            SampleApp_TransID = 0;
   \   000011   90....       MOV     DPTR,#SampleApp_TransID
   \   000014   E4           CLR     A
   \   000015   F0           MOVX    @DPTR,A
    184            
    185            MT_UartInit();
   \   000016                ; Setup parameters for call to function MT_UartInit
   \   000016   12....       LCALL   ??MT_UartInit?relay
    186            MT_UartRegisterTaskID(task_id);
   \   000019                ; Setup parameters for call to function MT_UartRegisterTaskID
   \   000019   EE           MOV     A,R6
   \   00001A   F9           MOV     R1,A
   \   00001B   12....       LCALL   ??MT_UartRegisterTaskID?relay
    187            
    188            HalUARTWrite(0, "Hello World\n", 12);
   \   00001E                ; Setup parameters for call to function HalUARTWrite
   \   00001E   7C0C         MOV     R4,#0xc
   \   000020   7D00         MOV     R5,#0x0
   \   000022   7A..         MOV     R2,#`?<Constant "Hello World\\n">` & 0xff
   \   000024   7B..         MOV     R3,#(`?<Constant "Hello World\\n">` >> 8) & 0xff
   \   000026   7900         MOV     R1,#0x0
   \   000028   12....       LCALL   ??HalUARTWrite?relay
    189          
    190            // Device hardware initialization can be added here or in main() (Zmain.c).
    191            // If the hardware is application specific - add it here.
    192            // If the hardware is other parts of the device add it in main().
    193          
    194           #if defined ( BUILD_ALL_DEVICES )
    195            // The "Demo" target is setup to have BUILD_ALL_DEVICES and HOLD_AUTO_START
    196            // We are looking at a jumper (defined in SampleAppHw.c) to be jumpered
    197            // together - if they are - we will start up a coordinator. Otherwise,
    198            // the device will start as a router.
    199            if ( readCoordinatorJumper() )
    200              zgDeviceLogicalType = ZG_DEVICETYPE_COORDINATOR;
    201            else
    202              zgDeviceLogicalType = ZG_DEVICETYPE_ROUTER;
    203          #endif // BUILD_ALL_DEVICES
    204          
    205          #if defined ( HOLD_AUTO_START )
    206            // HOLD_AUTO_START is a compile option that will surpress ZDApp
    207            //  from starting the device and wait for the application to
    208            //  start the device.
    209            ZDOInitDevice(0);
    210          #endif
    211          
    212            // Setup for the periodic message's destination address
    213            // Broadcast to everyone
    214            SampleApp_Periodic_DstAddr.addrMode = (afAddrMode_t)AddrBroadcast;
   \   00002B   90....       MOV     DPTR,#SampleApp_Periodic_DstAddr + 8
   \   00002E   740F         MOV     A,#0xf
   \   000030   F0           MOVX    @DPTR,A
    215            SampleApp_Periodic_DstAddr.endPoint = SAMPLEAPP_ENDPOINT;
   \   000031   A3           INC     DPTR
   \   000032   7414         MOV     A,#0x14
   \   000034   F0           MOVX    @DPTR,A
    216            SampleApp_Periodic_DstAddr.addr.shortAddr = 0xFFFF;
   \   000035   90....       MOV     DPTR,#SampleApp_Periodic_DstAddr
   \   000038   74FF         MOV     A,#-0x1
   \   00003A   F0           MOVX    @DPTR,A
   \   00003B   A3           INC     DPTR
   \   00003C   F0           MOVX    @DPTR,A
    217          
    218            // Setup for the flash command's destination address - Group 1
    219            SampleApp_Flash_DstAddr.addrMode = (afAddrMode_t)afAddrGroup;
   \   00003D   90....       MOV     DPTR,#SampleApp_Flash_DstAddr + 8
   \   000040   7401         MOV     A,#0x1
   \   000042   F0           MOVX    @DPTR,A
    220            SampleApp_Flash_DstAddr.endPoint = SAMPLEAPP_ENDPOINT;
   \   000043   A3           INC     DPTR
   \   000044   7414         MOV     A,#0x14
   \   000046   F0           MOVX    @DPTR,A
    221            SampleApp_Flash_DstAddr.addr.shortAddr = SAMPLEAPP_FLASH_GROUP;
   \   000047   90....       MOV     DPTR,#SampleApp_Flash_DstAddr
   \   00004A   7402         MOV     A,#0x2
   \   00004C   F0           MOVX    @DPTR,A
   \   00004D   A3           INC     DPTR
   \   00004E   E4           CLR     A
   \   00004F   F0           MOVX    @DPTR,A
    222            
    223            // Point_To_Point
    224            Point_To_Point_DstAddr.addrMode = (afAddrMode_t)Addr16Bit;
   \   000050   90....       MOV     DPTR,#Point_To_Point_DstAddr + 8
   \   000053   7402         MOV     A,#0x2
   \   000055   F0           MOVX    @DPTR,A
    225            Point_To_Point_DstAddr.endPoint = SAMPLEAPP_ENDPOINT;
   \   000056   A3           INC     DPTR
   \   000057   7414         MOV     A,#0x14
   \   000059   F0           MOVX    @DPTR,A
    226            Point_To_Point_DstAddr.addr.shortAddr = 0x0000;
   \   00005A   90....       MOV     DPTR,#Point_To_Point_DstAddr
   \   00005D   E4           CLR     A
   \   00005E   F0           MOVX    @DPTR,A
   \   00005F   A3           INC     DPTR
   \   000060   F0           MOVX    @DPTR,A
    227          
    228            // Fill out the endpoint description.
    229            SampleApp_epDesc.endPoint = SAMPLEAPP_ENDPOINT;
   \   000061   90....       MOV     DPTR,#SampleApp_epDesc
   \   000064   7414         MOV     A,#0x14
   \   000066   F0           MOVX    @DPTR,A
    230            SampleApp_epDesc.task_id = &SampleApp_TaskID;
   \   000067   A3           INC     DPTR
   \   000068   74..         MOV     A,#SampleApp_TaskID & 0xff
   \   00006A   F0           MOVX    @DPTR,A
   \   00006B   A3           INC     DPTR
   \   00006C   74..         MOV     A,#(SampleApp_TaskID >> 8) & 0xff
   \   00006E   F0           MOVX    @DPTR,A
    231            SampleApp_epDesc.simpleDesc
    232                      = (SimpleDescriptionFormat_t *)&SampleApp_SimpleDesc;
   \   00006F   A3           INC     DPTR
   \   000070   74..         MOV     A,#SampleApp_SimpleDesc & 0xff
   \   000072   F0           MOVX    @DPTR,A
   \   000073   A3           INC     DPTR
   \   000074   74..         MOV     A,#(SampleApp_SimpleDesc >> 8) & 0xff
   \   000076   F0           MOVX    @DPTR,A
    233            SampleApp_epDesc.latencyReq = noLatencyReqs;
   \   000077   A3           INC     DPTR
   \   000078   E4           CLR     A
   \   000079   F0           MOVX    @DPTR,A
    234          
    235            // Register the endpoint description with the AF
    236            afRegister( &SampleApp_epDesc );
   \   00007A                ; Setup parameters for call to function afRegister
   \   00007A   7A..         MOV     R2,#SampleApp_epDesc & 0xff
   \   00007C   7B..         MOV     R3,#(SampleApp_epDesc >> 8) & 0xff
   \   00007E   12....       LCALL   ??afRegister?relay
    237          
    238            // Register for all key events - This app will handle all key events
    239            RegisterForKeys( SampleApp_TaskID );
   \   000081                ; Setup parameters for call to function RegisterForKeys
   \   000081   90....       MOV     DPTR,#SampleApp_TaskID
   \   000084   E0           MOVX    A,@DPTR
   \   000085   F9           MOV     R1,A
   \   000086   12....       LCALL   ??RegisterForKeys?relay
    240          
    241            // By default, all devices start out in Group 1
    242            SampleApp_Group.ID = SAMPLEAPP_FLASH_GROUP;
   \   000089   90....       MOV     DPTR,#SampleApp_Group
   \   00008C   7402         MOV     A,#0x2
   \   00008E   F0           MOVX    @DPTR,A
   \   00008F   A3           INC     DPTR
   \   000090   E4           CLR     A
   \   000091   F0           MOVX    @DPTR,A
    243            osal_memcpy( SampleApp_Group.name, "Group 1", 7  );
   \   000092                ; Setup parameters for call to function osal_memcpy
   \   000092   75....       MOV     ?V0 + 0,#`?<Constant "Group 1">` & 0xff
   \   000095   75....       MOV     ?V0 + 1,#(`?<Constant "Group 1">` >> 8) & 0xff
   \   000098   F5..         MOV     ?V0 + 2,A
   \   00009A   78..         MOV     R0,#?V0 + 0
   \   00009C   12....       LCALL   ?PUSH_XSTACK_I_THREE
   \   00009F   7C07         MOV     R4,#0x7
   \   0000A1   7D00         MOV     R5,#0x0
   \   0000A3   7A..         MOV     R2,#(SampleApp_Group + 2) & 0xff
   \   0000A5   7B..         MOV     R3,#((SampleApp_Group + 2) >> 8) & 0xff
   \   0000A7   12....       LCALL   ??osal_memcpy?relay
   \   0000AA   7403         MOV     A,#0x3
   \   0000AC   12....       LCALL   ?DEALLOC_XSTACK8
    244            aps_AddGroup( SAMPLEAPP_ENDPOINT, &SampleApp_Group );
   \   0000AF                ; Setup parameters for call to function aps_AddGroup
   \   0000AF   7A..         MOV     R2,#SampleApp_Group & 0xff
   \   0000B1   7B..         MOV     R3,#(SampleApp_Group >> 8) & 0xff
   \   0000B3   7914         MOV     R1,#0x14
   \   0000B5   12....       LCALL   ??aps_AddGroup?relay
    245          
    246          #if defined ( LCD_SUPPORTED )
    247            HalLcdWriteString( "SampleApp", HAL_LCD_LINE_1 );
    248          #endif
    249          }
   \   0000B8   7F03         MOV     R7,#0x3
   \   0000BA   02....       LJMP    ?BANKED_LEAVE_XDATA
    250          
    251          
    252          
    253          

   \                                 In  segment BANKED_CODE, align 1, keep-with-next
    254          void SampleApp_SerialCMD(mtOSALSerialData_t *cmdMsg)
   \                     SampleApp_SerialCMD:
    255          {
   \   000000   74F2         MOV     A,#-0xe
   \   000002   12....       LCALL   ?BANKED_ENTER_XDATA
   \   000005                ; Saved register size: 14
   \   000005                ; Auto size: 0
    256            uint8 i, len, *str = NULL;
    257            str = cmdMsg -> msg;
   \   000005   8A82         MOV     DPL,R2
   \   000007   8B83         MOV     DPH,R3
   \   000009   A3           INC     DPTR
   \   00000A   A3           INC     DPTR
   \   00000B   E0           MOVX    A,@DPTR
   \   00000C   F5..         MOV     ?V0 + 0,A
   \   00000E   A3           INC     DPTR
   \   00000F   E0           MOVX    A,@DPTR
   \   000010   F5..         MOV     ?V0 + 1,A
    258            len = *str;
   \   000012   85..82       MOV     DPL,?V0 + 0
   \   000015   F583         MOV     DPH,A
   \   000017   E0           MOVX    A,@DPTR
   \   000018   F5..         MOV     ?V0 + 2,A
    259            
    260            for (i = 1; i <= len; i++)
   \   00001A   7E01         MOV     R6,#0x1
   \   00001C   8012         SJMP    ??SampleApp_SerialCMD_0
    261              HalUARTWrite(0, str + i, 1);
   \                     ??SampleApp_SerialCMD_1:
   \   00001E                ; Setup parameters for call to function HalUARTWrite
   \   00001E   8E..         MOV     ?V0 + 4,R6
   \   000020   E5..         MOV     A,?V0 + 0
   \   000022   25..         ADD     A,?V0 + 4
   \   000024   FA           MOV     R2,A
   \   000025   E5..         MOV     A,?V0 + 1
   \   000027   3400         ADDC    A,#0x0
   \   000029   FB           MOV     R3,A
   \   00002A   7900         MOV     R1,#0x0
   \   00002C   12....       LCALL   ??HalUARTWrite?relay
   \   00002F   0E           INC     R6
   \                     ??SampleApp_SerialCMD_0:
   \   000030   E5..         MOV     A,?V0 + 2
   \   000032   C3           CLR     C
   \   000033   9E           SUBB    A,R6
   \   000034   7C01         MOV     R4,#0x1
   \   000036   7D00         MOV     R5,#0x0
   \   000038   50E4         JNC     ??SampleApp_SerialCMD_1
    262            HalUARTWrite(0, "\n", 1);
   \   00003A                ; Setup parameters for call to function HalUARTWrite
   \   00003A   7A..         MOV     R2,#`?<Constant "\\n">` & 0xff
   \   00003C   7B..         MOV     R3,#(`?<Constant "\\n">` >> 8) & 0xff
   \   00003E   7900         MOV     R1,#0x0
   \   000040   12....       LCALL   ??HalUARTWrite?relay
    263            
    264            if (AF_DataRequest(&SampleApp_Periodic_DstAddr, &SampleApp_epDesc,
    265                               SAPMLEAPP_COM_CLUSTERID,
    266                               len + 1,
    267                               str,
    268                               &SampleApp_TransID,
    269                               AF_DISCV_ROUTE,
    270                               AF_DEFAULT_RADIUS) == afStatus_SUCCESS)
   \   000043                ; Setup parameters for call to function AF_DataRequest
   \   000043   75..1E       MOV     ?V0 + 3,#0x1e
   \   000046   78..         MOV     R0,#?V0 + 3
   \   000048   12....       LCALL   ?PUSH_XSTACK_I_ONE
   \   00004B   75....       MOV     ?V0 + 4,#SampleApp_TransID & 0xff
   \   00004E   75....       MOV     ?V0 + 5,#(SampleApp_TransID >> 8) & 0xff
   \   000051   78..         MOV     R0,#?V0 + 4
   \   000053   12....       LCALL   ?PUSH_XSTACK_I_TWO
   \   000056   78..         MOV     R0,#?V0 + 0
   \   000058   12....       LCALL   ?PUSH_XSTACK_I_TWO
   \   00005B   E5..         MOV     A,?V0 + 2
   \   00005D   2401         ADD     A,#0x1
   \   00005F   F5..         MOV     ?V0 + 0,A
   \   000061   E4           CLR     A
   \   000062   3400         ADDC    A,#0x0
   \   000064   F5..         MOV     ?V0 + 1,A
   \   000066   78..         MOV     R0,#?V0 + 0
   \   000068   12....       LCALL   ?PUSH_XSTACK_I_TWO
   \   00006B   75..03       MOV     ?V0 + 0,#0x3
   \   00006E   75..00       MOV     ?V0 + 1,#0x0
   \   000071   78..         MOV     R0,#?V0 + 0
   \   000073   12....       LCALL   ?PUSH_XSTACK_I_TWO
   \   000076   12....       LCALL   ?Subroutine8 & 0xFFFF
   \                     ??CrossCallReturnLabel_18:
   \   000079   12....       LCALL   ?DEALLOC_XSTACK8
   \   00007C   E9           MOV     A,R1
   \   00007D   700A         JNZ     ??SampleApp_SerialCMD_2
    271            {
    272              HalUARTWrite(0, "AF_DataRequest Success\n", 22);
   \   00007F                ; Setup parameters for call to function HalUARTWrite
   \   00007F   7C16         MOV     R4,#0x16
   \   000081   7D00         MOV     R5,#0x0
   \   000083   7A..         MOV     R2,#`?<Constant "AF_DataRequest Success\\n">` & 0xff
   \   000085   7B..         MOV     R3,#(`?<Constant "AF_DataRequest Success\\n">` >> 8) & 0xff
   \   000087   8008         SJMP    ??SampleApp_SerialCMD_3
    273            }
    274            else
    275            {
    276              HalUARTWrite(0, "AF_DataRequest Failed\n", 21);
   \                     ??SampleApp_SerialCMD_2:
   \   000089                ; Setup parameters for call to function HalUARTWrite
   \   000089   7C15         MOV     R4,#0x15
   \   00008B   7D00         MOV     R5,#0x0
   \   00008D   7A..         MOV     R2,#`?<Constant "AF_DataRequest Failed\\n">` & 0xff
   \   00008F   7B..         MOV     R3,#(`?<Constant "AF_DataRequest Failed\\n">` >> 8) & 0xff
   \                     ??SampleApp_SerialCMD_3:
   \   000091   7900         MOV     R1,#0x0
   \   000093   12....       LCALL   ??HalUARTWrite?relay
    277            }
    278          }
   \   000096   7F06         MOV     R7,#0x6
   \   000098   02....       LJMP    ?BANKED_LEAVE_XDATA

   \                                 In  segment BANKED_CODE, align 1, keep-with-next
   \                     ?Subroutine8:
   \   000000   7920         MOV     R1,#0x20
   \   000002   7C..         MOV     R4,#SampleApp_epDesc & 0xff
   \   000004   7D..         MOV     R5,#(SampleApp_epDesc >> 8) & 0xff
   \   000006   7A..         MOV     R2,#SampleApp_Periodic_DstAddr & 0xff
   \   000008   7B..         MOV     R3,#(SampleApp_Periodic_DstAddr >> 8) & 0xff
   \   00000A                REQUIRE ??Subroutine14_0
   \   00000A                ; // Fall through to label ??Subroutine14_0

   \                                 In  segment BANKED_CODE, align 1, keep-with-next
   \                     ??Subroutine14_0:
   \   000000   12....       LCALL   ??AF_DataRequest?relay
   \   000003   7409         MOV     A,#0x9
   \   000005   22           RET
    279          
    280          /*********************************************************************
    281           * @fn      SampleApp_ProcessEvent
    282           *
    283           * @brief   Generic Application Task event processor.  This function
    284           *          is called to process all events for the task.  Events
    285           *          include timers, messages and any other user defined events.
    286           *
    287           * @param   task_id  - The OSAL assigned task ID.
    288           * @param   events - events to process.  This is a bit map and can
    289           *                   contain more than one event.
    290           *
    291           * @return  none
    292           */

   \                                 In  segment BANKED_CODE, align 1, keep-with-next
    293          uint16 SampleApp_ProcessEvent( uint8 task_id, uint16 events )
   \                     SampleApp_ProcessEvent:
    294          {
   \   000000   74F4         MOV     A,#-0xc
   \   000002   12....       LCALL   ?BANKED_ENTER_XDATA
   \   000005                ; Saved register size: 12
   \   000005                ; Auto size: 0
   \   000005   EA           MOV     A,R2
   \   000006   FE           MOV     R6,A
   \   000007   EB           MOV     A,R3
   \   000008   FF           MOV     R7,A
    295            afIncomingMSGPacket_t *MSGpkt;
    296            (void)task_id;  // Intentionally unreferenced parameter
    297          
    298            if ( events & SYS_EVENT_MSG )
   \   000009   5480         ANL     A,#0x80
   \   00000B   7003         JNZ     $+5
   \   00000D   02....       LJMP    ??SampleApp_ProcessEvent_0 & 0xFFFF
    299            {
    300              MSGpkt = (afIncomingMSGPacket_t *)osal_msg_receive( SampleApp_TaskID );
   \   000010                ; Setup parameters for call to function osal_msg_receive
   \   000010   802B         SJMP    ??SampleApp_ProcessEvent_1
    301              while ( MSGpkt )
    302              {
    303                switch ( MSGpkt->hdr.event )
    304                {
    305                  case CMD_SERIAL_MSG:
    306                    SampleApp_SerialCMD((mtOSALSerialData_t *)MSGpkt);
    307                    break;
    308                    
    309                  // Received when a key is pressed
    310                  case KEY_CHANGE:
    311                    HalUARTWrite(0, "KEY ", 4);
    312                    SampleApp_HandleKeys( ((keyChange_t *)MSGpkt)->state, ((keyChange_t *)MSGpkt)->keys );
    313                    break;
    314          
    315                  // Received when a messages is received (OTA) for this endpoint
    316                  case AF_INCOMING_MSG_CMD:
    317                    SampleApp_MessageMSGCB( MSGpkt );
    318                    break;
    319          
    320                  // Received whenever the device changes state in the network
    321                  case ZDO_STATE_CHANGE:
    322                    SampleApp_NwkState = (devStates_t)(MSGpkt->hdr.status);
   \                     ??SampleApp_ProcessEvent_2:
   \   000012   A3           INC     DPTR
   \   000013   E0           MOVX    A,@DPTR
   \   000014   90....       MOV     DPTR,#SampleApp_NwkState
   \   000017   F0           MOVX    @DPTR,A
    323                    if ( (SampleApp_NwkState == DEV_ZB_COORD) ||
    324                         (SampleApp_NwkState == DEV_ROUTER)
    325                        || (SampleApp_NwkState == DEV_END_DEVICE) )
   \   000018   6409         XRL     A,#0x9
   \   00001A   600A         JZ      ??SampleApp_ProcessEvent_3
   \   00001C   E0           MOVX    A,@DPTR
   \   00001D   6407         XRL     A,#0x7
   \   00001F   6005         JZ      ??SampleApp_ProcessEvent_3
   \   000021   E0           MOVX    A,@DPTR
   \   000022   6406         XRL     A,#0x6
   \   000024   7010         JNZ     ??SampleApp_ProcessEvent_4
    326                    {
    327                      // Start sending the periodic message in a regular interval.
    328                      osal_start_timerEx( SampleApp_TaskID,
    329                                        SAMPLEAPP_SEND_PERIODIC_MSG_EVT,
    330                                        SAMPLEAPP_SEND_PERIODIC_MSG_TIMEOUT );
   \                     ??SampleApp_ProcessEvent_3:
   \   000026                ; Setup parameters for call to function osal_start_timerEx
   \   000026   7C88         MOV     R4,#-0x78
   \   000028   7D13         MOV     R5,#0x13
   \   00002A   7A01         MOV     R2,#0x1
   \   00002C   7B00         MOV     R3,#0x0
   \   00002E   90....       MOV     DPTR,#SampleApp_TaskID
   \   000031   E0           MOVX    A,@DPTR
   \   000032   F9           MOV     R1,A
   \   000033   12....       LCALL   ??osal_start_timerEx?relay
    331                    }
    332                    else
    333                    {
    334                      // Device is no longer in the network
    335                    }
    336                    break;
    337          
    338                  default:
    339                    break;
    340                }
    341          
    342                // Release the memory
    343                osal_msg_deallocate( (uint8 *)MSGpkt );
   \                     ??SampleApp_ProcessEvent_4:
   \   000036                ; Setup parameters for call to function osal_msg_deallocate
   \   000036   AA..         MOV     R2,?V0 + 0
   \   000038   AB..         MOV     R3,?V0 + 1
   \   00003A   12....       LCALL   ??osal_msg_deallocate?relay
    344          
    345                // Next - if one is available
    346                MSGpkt = (afIncomingMSGPacket_t *)osal_msg_receive( SampleApp_TaskID );
   \   00003D                ; Setup parameters for call to function osal_msg_receive
   \                     ??SampleApp_ProcessEvent_1:
   \   00003D   90....       MOV     DPTR,#SampleApp_TaskID
   \   000040   E0           MOVX    A,@DPTR
   \   000041   F9           MOV     R1,A
   \   000042   12....       LCALL   ??osal_msg_receive?relay
   \   000045   8A..         MOV     ?V0 + 0,R2
   \   000047   8B..         MOV     ?V0 + 1,R3
   \   000049   E5..         MOV     A,?V0 + 0
   \   00004B   45..         ORL     A,?V0 + 1
   \   00004D   6051         JZ      ??SampleApp_ProcessEvent_5
   \   00004F   85..82       MOV     DPL,?V0 + 0
   \   000052   85..83       MOV     DPH,?V0 + 1
   \   000055   E0           MOVX    A,@DPTR
   \   000056   14           DEC     A
   \   000057   600E         JZ      ??SampleApp_ProcessEvent_6
   \   000059   24E7         ADD     A,#-0x19
   \   00005B   603A         JZ      ??SampleApp_ProcessEvent_7
   \   00005D   245A         ADD     A,#0x5a
   \   00005F   600F         JZ      ??SampleApp_ProcessEvent_8
   \   000061   24EF         ADD     A,#-0x11
   \   000063   60AD         JZ      ??SampleApp_ProcessEvent_2
   \   000065   80CF         SJMP    ??SampleApp_ProcessEvent_4
   \                     ??SampleApp_ProcessEvent_6:
   \   000067                ; Setup parameters for call to function SampleApp_SerialCMD
   \   000067   AA..         MOV     R2,?V0 + 0
   \   000069   AB..         MOV     R3,?V0 + 1
   \   00006B   12....       LCALL   ??SampleApp_SerialCMD?relay
   \   00006E   80C6         SJMP    ??SampleApp_ProcessEvent_4
   \                     ??SampleApp_ProcessEvent_8:
   \   000070                ; Setup parameters for call to function HalUARTWrite
   \   000070   7C04         MOV     R4,#0x4
   \   000072   7D00         MOV     R5,#0x0
   \   000074   7A..         MOV     R2,#`?<Constant "KEY ">` & 0xff
   \   000076   7B..         MOV     R3,#(`?<Constant "KEY ">` >> 8) & 0xff
   \   000078   7900         MOV     R1,#0x0
   \   00007A   12....       LCALL   ??HalUARTWrite?relay
   \   00007D                ; Setup parameters for call to function SampleApp_HandleKeys
   \   00007D   85..82       MOV     DPL,?V0 + 0
   \   000080   85..83       MOV     DPH,?V0 + 1
   \   000083   A3           INC     DPTR
   \   000084   A3           INC     DPTR
   \   000085   A3           INC     DPTR
   \   000086   E0           MOVX    A,@DPTR
   \   000087   FA           MOV     R2,A
   \   000088   85..82       MOV     DPL,?V0 + 0
   \   00008B   85..83       MOV     DPH,?V0 + 1
   \   00008E   A3           INC     DPTR
   \   00008F   A3           INC     DPTR
   \   000090   E0           MOVX    A,@DPTR
   \   000091   F9           MOV     R1,A
   \   000092   12....       LCALL   ??SampleApp_HandleKeys?relay
   \   000095   809F         SJMP    ??SampleApp_ProcessEvent_4
   \                     ??SampleApp_ProcessEvent_7:
   \   000097                ; Setup parameters for call to function SampleApp_MessageMSGCB
   \   000097   AA..         MOV     R2,?V0 + 0
   \   000099   AB..         MOV     R3,?V0 + 1
   \   00009B   12....       LCALL   ??SampleApp_MessageMSGCB?relay
   \   00009E   8096         SJMP    ??SampleApp_ProcessEvent_4
    347              }
    348          
    349              // return unprocessed events
    350              return (events ^ SYS_EVENT_MSG);
   \                     ??SampleApp_ProcessEvent_5:
   \   0000A0   EE           MOV     A,R6
   \   0000A1   FA           MOV     R2,A
   \   0000A2   EF           MOV     A,R7
   \   0000A3   6480         XRL     A,#0x80
   \                     ??SampleApp_ProcessEvent_9:
   \   0000A5   FB           MOV     R3,A
   \   0000A6   802A         SJMP    ??SampleApp_ProcessEvent_10
    351            }
    352          
    353            // Send a message out - This event is generated by a timer
    354            //  (setup in SampleApp_Init()).
    355            if ( events & SAMPLEAPP_SEND_PERIODIC_MSG_EVT )
   \                     ??SampleApp_ProcessEvent_0:
   \   0000A8   EE           MOV     A,R6
   \   0000A9   A2E0         MOV     C,0xE0 /* A   */.0
   \   0000AB   5021         JNC     ??SampleApp_ProcessEvent_11
    356            {
    357              // Send the periodic message
    358              SampleApp_SendPointToPointMessage();
   \   0000AD                ; Setup parameters for call to function SampleApp_SendPointToPointMessage
   \   0000AD   12....       LCALL   ??SampleApp_SendPointToPointMessage?relay
    359          
    360              // Setup to send message again in normal period (+ a little jitter)
    361              osal_start_timerEx( SampleApp_TaskID, SAMPLEAPP_SEND_PERIODIC_MSG_EVT,
    362                  (SAMPLEAPP_SEND_PERIODIC_MSG_TIMEOUT + (osal_rand() & 0x00FF)) );
   \   0000B0                ; Setup parameters for call to function osal_rand
   \   0000B0   12....       LCALL   ??osal_rand?relay
   \   0000B3                ; Setup parameters for call to function osal_start_timerEx
   \   0000B3   EA           MOV     A,R2
   \   0000B4   2488         ADD     A,#-0x78
   \   0000B6   FC           MOV     R4,A
   \   0000B7   E4           CLR     A
   \   0000B8   3413         ADDC    A,#0x13
   \   0000BA   FD           MOV     R5,A
   \   0000BB   7A01         MOV     R2,#0x1
   \   0000BD   7B00         MOV     R3,#0x0
   \   0000BF   90....       MOV     DPTR,#SampleApp_TaskID
   \   0000C2   E0           MOVX    A,@DPTR
   \   0000C3   F9           MOV     R1,A
   \   0000C4   12....       LCALL   ??osal_start_timerEx?relay
    363          
    364              // return unprocessed events
    365              return (events ^ SAMPLEAPP_SEND_PERIODIC_MSG_EVT);
   \   0000C7   EE           MOV     A,R6
   \   0000C8   6401         XRL     A,#0x1
   \   0000CA   FA           MOV     R2,A
   \   0000CB   EF           MOV     A,R7
   \   0000CC   80D7         SJMP    ??SampleApp_ProcessEvent_9
    366            }
    367          
    368            // Discard unknown events
    369            return 0;
   \                     ??SampleApp_ProcessEvent_11:
   \   0000CE   7A00         MOV     R2,#0x0
   \   0000D0   7B00         MOV     R3,#0x0
   \                     ??SampleApp_ProcessEvent_10:
   \   0000D2                REQUIRE ?Subroutine0
   \   0000D2                ; // Fall through to label ?Subroutine0
    370          }

   \                                 In  segment BANKED_CODE, align 1, keep-with-next
   \                     ?Subroutine0:
   \   000000   7F04         MOV     R7,#0x4
   \   000002   02....       LJMP    ?BANKED_LEAVE_XDATA
    371          
    372          /*********************************************************************
    373           * Event Generation Functions
    374           */
    375          /*********************************************************************
    376           * @fn      SampleApp_HandleKeys
    377           *
    378           * @brief   Handles all key events for this device.
    379           *
    380           * @param   shift - true if in shift/alt.
    381           * @param   keys - bit field for key events. Valid entries:
    382           *                 HAL_KEY_SW_2
    383           *                 HAL_KEY_SW_1
    384           *
    385           * @return  none
    386           */

   \                                 In  segment BANKED_CODE, align 1, keep-with-next
    387          void SampleApp_HandleKeys( uint8 shift, uint8 keys )
   \                     SampleApp_HandleKeys:
    388          {
   \   000000   74F6         MOV     A,#-0xa
   \   000002   12....       LCALL   ?BANKED_ENTER_XDATA
   \   000005                ; Saved register size: 10
   \   000005                ; Auto size: 0
   \   000005   EA           MOV     A,R2
   \   000006   FE           MOV     R6,A
    389            (void)shift;  // Intentionally unreferenced parameter
    390            
    391            
    392            if ( keys & HAL_KEY_SW_6)
   \   000007   A2E5         MOV     C,0xE0 /* A   */.5
   \   000009   501A         JNC     ??SampleApp_HandleKeys_0
    393            {
    394              HalUARTWrite(0, "K1 ", 3);
   \   00000B                ; Setup parameters for call to function HalUARTWrite
   \   00000B   7C03         MOV     R4,#0x3
   \   00000D   7D00         MOV     R5,#0x0
   \   00000F   7A..         MOV     R2,#`?<Constant "K1 ">` & 0xff
   \   000011   7B..         MOV     R3,#(`?<Constant "K1 ">` >> 8) & 0xff
   \   000013   7900         MOV     R1,#0x0
   \   000015   12....       LCALL   ??HalUARTWrite?relay
    395              HalLedBlink(HAL_LED_1, 2, 50, 500);
   \   000018                ; Setup parameters for call to function HalLedBlink
   \   000018   7CF4         MOV     R4,#-0xc
   \   00001A   7D01         MOV     R5,#0x1
   \   00001C   7B32         MOV     R3,#0x32
   \   00001E   7A02         MOV     R2,#0x2
   \   000020   7901         MOV     R1,#0x1
   \   000022   12....       LCALL   ??HalLedBlink?relay
    396            }
    397            
    398            
    399            if ( keys & HAL_KEY_SW_1 )
   \                     ??SampleApp_HandleKeys_0:
   \   000025   EE           MOV     A,R6
   \   000026   A2E0         MOV     C,0xE0 /* A   */.0
   \   000028   5007         JNC     ??SampleApp_HandleKeys_1
    400            {
    401              /* This key sends the Flash Command is sent to Group 1.
    402               * This device will not receive the Flash Command from this
    403               * device (even if it belongs to group 1).
    404               */
    405              SampleApp_SendFlashMessage( SAMPLEAPP_FLASH_DURATION );
   \   00002A                ; Setup parameters for call to function SampleApp_SendFlashMessage
   \   00002A   7AE8         MOV     R2,#-0x18
   \   00002C   7B03         MOV     R3,#0x3
   \   00002E   12....       LCALL   ??SampleApp_SendFlashMessage?relay
    406            }
    407          
    408            if ( keys & HAL_KEY_SW_2 )
   \                     ??SampleApp_HandleKeys_1:
   \   000031   EE           MOV     A,R6
   \   000032   A2E1         MOV     C,0xE0 /* A   */.1
   \   000034   5024         JNC     ??SampleApp_HandleKeys_2
    409            {
    410              /* The Flashr Command is sent to Group 1.
    411               * This key toggles this device in and out of group 1.
    412               * If this device doesn't belong to group 1, this application
    413               * will not receive the Flash command sent to group 1.
    414               */
    415              aps_Group_t *grp;
    416              grp = aps_FindGroup( SAMPLEAPP_ENDPOINT, SAMPLEAPP_FLASH_GROUP );
    417              if ( grp )
   \   000036                ; Setup parameters for call to function aps_FindGroup
   \   000036   7A02         MOV     R2,#0x2
   \   000038   7B00         MOV     R3,#0x0
   \   00003A   7914         MOV     R1,#0x14
   \   00003C   12....       LCALL   ??aps_FindGroup?relay
   \   00003F   8B..         MOV     ?V0 + 1,R3
   \   000041   EA           MOV     A,R2
   \   000042   45..         ORL     A,?V0 + 1
   \   000044   600B         JZ      ??SampleApp_HandleKeys_3
    418              {
    419                // Remove from the group
    420                aps_RemoveGroup( SAMPLEAPP_ENDPOINT, SAMPLEAPP_FLASH_GROUP );
   \   000046                ; Setup parameters for call to function aps_RemoveGroup
   \   000046   7A02         MOV     R2,#0x2
   \   000048   7B00         MOV     R3,#0x0
   \   00004A   7914         MOV     R1,#0x14
   \   00004C   12....       LCALL   ??aps_RemoveGroup?relay
   \   00004F   8009         SJMP    ??SampleApp_HandleKeys_2
    421              }
    422              else
    423              {
    424                // Add to the flash group
    425                aps_AddGroup( SAMPLEAPP_ENDPOINT, &SampleApp_Group );
   \                     ??SampleApp_HandleKeys_3:
   \   000051                ; Setup parameters for call to function aps_AddGroup
   \   000051   7A..         MOV     R2,#SampleApp_Group & 0xff
   \   000053   7B..         MOV     R3,#(SampleApp_Group >> 8) & 0xff
   \   000055   7914         MOV     R1,#0x14
   \   000057   12....       LCALL   ??aps_AddGroup?relay
    426              }
    427            }
    428          }
   \                     ??SampleApp_HandleKeys_2:
   \   00005A   02....       LJMP    ??Subroutine13_0 & 0xFFFF

   \                                 In  segment BANKED_CODE, align 1, keep-with-next
   \                     ??Subroutine13_0:
   \   000000   7F02         MOV     R7,#0x2
   \   000002   02....       LJMP    ?BANKED_LEAVE_XDATA
    429          
    430          /*********************************************************************
    431           * LOCAL FUNCTIONS
    432           */
    433          
    434          /*********************************************************************
    435           * @fn      SampleApp_MessageMSGCB
    436           *
    437           * @brief   Data message processor callback.  This function processes
    438           *          any incoming data - probably from other devices.  So, based
    439           *          on cluster ID, perform the intended action.
    440           *
    441           * @param   none
    442           *
    443           * @return  none
    444           */

   \                                 In  segment BANKED_CODE, align 1, keep-with-next
    445          void SampleApp_MessageMSGCB( afIncomingMSGPacket_t *pkt )
   \                     SampleApp_MessageMSGCB:
    446          {
   \   000000   74F4         MOV     A,#-0xc
   \   000002   12....       LCALL   ?BANKED_ENTER_XDATA
   \   000005                ; Saved register size: 12
   \   000005                ; Auto size: 16
   \   000005   74F0         MOV     A,#-0x10
   \   000007   12....       LCALL   ?ALLOC_XSTACK8
   \   00000A   8A..         MOV     ?V0 + 0,R2
   \   00000C   8B..         MOV     ?V0 + 1,R3
    447            uint16 flashTime;
    448            uint8 i, len;
    449          
    450            switch ( pkt->clusterId )
   \   00000E   8A82         MOV     DPL,R2
   \   000010   8B83         MOV     DPH,R3
   \   000012   A3           INC     DPTR
   \   000013   A3           INC     DPTR
   \   000014   A3           INC     DPTR
   \   000015   A3           INC     DPTR
   \   000016   E0           MOVX    A,@DPTR
   \   000017   F5..         MOV     ?V0 + 2,A
   \   000019   A3           INC     DPTR
   \   00001A   E0           MOVX    A,@DPTR
   \   00001B   F5..         MOV     ?V0 + 3,A
   \   00001D   78..         MOV     R0,#?V0 + 2
   \   00001F   12....       LCALL   ?US_SWITCH_DENSE
   \                     `?<Jumptable for SampleApp_MessageMSGCB>_0`:
   \   000022   0100         DW        1
   \   000024   03           DB        3
   \   000025   ....         DW        ??CrossCallReturnLabel_1
   \   000027   ....         DW        ??SampleApp_MessageMSGCB_0
   \   000029   ....         DW        ??SampleApp_MessageMSGCB_1
   \   00002B   ....         DW        ??SampleApp_MessageMSGCB_0
   \   00002D   ....         DW        ??SampleApp_MessageMSGCB_2
    451            {
    452              case SAPMLEAPP_COM_CLUSTERID:
    453                //HalUARTWrite(0, "I get data\n", 11);
    454                //HalUARTWrite(0, &pkt->cmd.Data[0], 4);
    455                //HalUARTWrite(0, "\n", 1);
    456          //      len = pkt->cmd.Data[0];
    457          //      for (i = 0; i < len; i++)
    458          //        HalUARTWrite(0, &pkt->cmd.Data[i+1], 1);
    459          //      HalUARTWrite(0, "\n", 1);
    460          //      break;
    461                
    462              case SAMPLEAPP_PERIODIC_CLUSTERID:
    463                HalUARTWrite(0, "Period Data:\n", 13);
   \                     ??SampleApp_MessageMSGCB_0:
   \   00002F                ; Setup parameters for call to function HalUARTWrite
   \   00002F   7C0D         MOV     R4,#0xd
   \   000031   7D00         MOV     R5,#0x0
   \   000033   7A..         MOV     R2,#`?<Constant "Period Data:\\n">` & 0xff
   \   000035   7B..         MOV     R3,#(`?<Constant "Period Data:\\n">` >> 8) & 0xff
   \   000037   7900         MOV     R1,#0x0
   \   000039   12....       LCALL   ??HalUARTWrite?relay
    464                HalUARTWrite(0, &pkt->cmd.Data[0], 4);
   \   00003C   E5..         MOV     A,?V0 + 0
   \   00003E   2422         ADD     A,#0x22
   \   000040   FE           MOV     R6,A
   \   000041   E5..         MOV     A,?V0 + 1
   \   000043   3400         ADDC    A,#0x0
   \   000045   FF           MOV     R7,A
   \   000046                ; Setup parameters for call to function HalUARTWrite
   \   000046   7C04         MOV     R4,#0x4
   \   000048   12....       LCALL   ?Subroutine6 & 0xFFFF
   \                     ??CrossCallReturnLabel_16:
   \   00004B   12....       LCALL   ?Subroutine2 & 0xFFFF
    465                HalUARTWrite(0, "\n", 1);
    466                
    467              
    468                HalUARTWrite(0, "Point to Point\n", 15);
   \                     ??CrossCallReturnLabel_0:
   \   00004E                ; Setup parameters for call to function HalUARTWrite
   \   00004E   7C0F         MOV     R4,#0xf
   \   000050   7D00         MOV     R5,#0x0
   \   000052   7A..         MOV     R2,#`?<Constant "Point to Point\\n">` & 0xff
   \   000054   7B..         MOV     R3,#(`?<Constant "Point to Point\\n">` >> 8) & 0xff
   \   000056   7900         MOV     R1,#0x0
   \   000058   12....       LCALL   ??HalUARTWrite?relay
    469                HalUARTWrite(0, &pkt->cmd.Data[0], 1);
   \   00005B                ; Setup parameters for call to function HalUARTWrite
   \   00005B   7C01         MOV     R4,#0x1
   \   00005D   12....       LCALL   ?Subroutine6 & 0xFFFF
   \                     ??CrossCallReturnLabel_17:
   \   000060   12....       LCALL   ??HalUARTWrite?relay
    470                HalUARTWrite(0, "\n\n", 2);
   \   000063                ; Setup parameters for call to function HalUARTWrite
   \   000063   7C02         MOV     R4,#0x2
   \   000065   7D00         MOV     R5,#0x0
   \   000067   7A..         MOV     R2,#`?<Constant "\\n\\n">` & 0xff
   \   000069   7B..         MOV     R3,#(`?<Constant "\\n\\n">` >> 8) & 0xff
   \   00006B   7900         MOV     R1,#0x0
   \   00006D   12....       LCALL   ??HalUARTWrite?relay
    471                
    472              uint16 flashTime, temp;
                            ^
Warning[Pe177]: variable "flashTime" was declared but never referenced

    switch ( pkt->clusterId )
    ^
"D:\ZStack-CC2530-2.5.1a\Projects\zstack\Samples\SampleApp - 副本\Source\SampleApp.c",450  Warning[Pe546]: 
          transfer of control bypasses initialization of:
            variable "asc_16" (declared at line 474 of
                      "D:\ZStack-CC2530-2.5.1a\Projects\zstack\Samples\SampleAp
                      p - 副本\Source\SampleApp.c")

    uint16 flashTime;
           ^
"D:\ZStack-CC2530-2.5.1a\Projects\zstack\Samples\SampleApp - 副本\Source\SampleApp.c",447  Warning[Pe177]: 
          variable "flashTime" was declared but never referenced

    uint8 i, len;
          ^
"D:\ZStack-CC2530-2.5.1a\Projects\zstack\Samples\SampleApp - 副本\Source\SampleApp.c",448  Warning[Pe177]: 
          variable "i" was declared but never referenced

    uint8 i, len;
             ^
"D:\ZStack-CC2530-2.5.1a\Projects\zstack\Samples\SampleApp - 副本\Source\SampleApp.c",448  Warning[Pe177]: 
          variable "len" was declared but never referenced
    473              
    474              uint8 asc_16[16] = {'0', '1', '2', '3', '5', '6', '7', '8', '9', 'A', 'B', 'C', 'D', 'E', 'F'};
   \   000070   85..82       MOV     DPL,?XSP + 0
   \   000073   85..83       MOV     DPH,?XSP + 1
   \   000076   AC82         MOV     R4,DPL
   \   000078   AD83         MOV     R5,DPH
   \   00007A   7583..       MOV     DPH,#(`?<Constant {48, 49, 50, 51, 53, 54, 55, 56, 57` >> 8) & 0xff
   \   00007D   7582..       MOV     DPL,#`?<Constant {48, 49, 50, 51, 53, 54, 55, 56, 57` & 0xff
   \   000080   7410         MOV     A,#0x10
   \   000082   12....       LCALL   ?MOVE_LONG8_XDATA_XDATA
    475              case SAPMLEAPP_POINT_TO_POINT_CLUSTERID:
    476                temp = pkt->srcAddr.addr.shortAddr;
   \                     ??SampleApp_MessageMSGCB_2:
   \   000085   85..82       MOV     DPL,?V0 + 0
   \   000088   85..83       MOV     DPH,?V0 + 1
   \   00008B   A3           INC     DPTR
   \   00008C   A3           INC     DPTR
   \   00008D   A3           INC     DPTR
   \   00008E   A3           INC     DPTR
   \   00008F   A3           INC     DPTR
   \   000090   A3           INC     DPTR
   \   000091   E0           MOVX    A,@DPTR
   \   000092   FE           MOV     R6,A
   \   000093   A3           INC     DPTR
   \   000094   E0           MOVX    A,@DPTR
   \   000095   FF           MOV     R7,A
    477                
    478                if (pkt->cmd.Data[0] == 1)
   \   000096   12....       LCALL   ?Subroutine4 & 0xFFFF
   \                     ??CrossCallReturnLabel_4:
   \   000099   6401         XRL     A,#0x1
   \   00009B   700D         JNZ     ??SampleApp_MessageMSGCB_3
    479                  HalUARTWrite(0, "ROUTER ShortAddr:0x", 19);
   \   00009D                ; Setup parameters for call to function HalUARTWrite
   \   00009D   7C13         MOV     R4,#0x13
   \   00009F   7D00         MOV     R5,#0x0
   \   0000A1   7A..         MOV     R2,#`?<Constant "ROUTER ShortAddr:0x">` & 0xff
   \   0000A3   7B..         MOV     R3,#(`?<Constant "ROUTER ShortAddr:0x">` >> 8) & 0xff
   \   0000A5   7900         MOV     R1,#0x0
   \   0000A7   12....       LCALL   ??HalUARTWrite?relay
    480                if (pkt->cmd.Data[0] == 2)
   \                     ??SampleApp_MessageMSGCB_3:
   \   0000AA   12....       LCALL   ?Subroutine4 & 0xFFFF
   \                     ??CrossCallReturnLabel_5:
   \   0000AD   6402         XRL     A,#0x2
   \   0000AF   700D         JNZ     ??SampleApp_MessageMSGCB_4
    481                  HalUARTWrite(0, "ENDDEVICE ShortAddr:0x", 22);
   \   0000B1                ; Setup parameters for call to function HalUARTWrite
   \   0000B1   7C16         MOV     R4,#0x16
   \   0000B3   7D00         MOV     R5,#0x0
   \   0000B5   7A..         MOV     R2,#`?<Constant "ENDDEVICE ShortAddr:0x">` & 0xff
   \   0000B7   7B..         MOV     R3,#(`?<Constant "ENDDEVICE ShortAddr:0x">` >> 8) & 0xff
   \   0000B9   7900         MOV     R1,#0x0
   \   0000BB   12....       LCALL   ??HalUARTWrite?relay
    482                
    483                HalUARTWrite(0, &asc_16[temp/4096], 1);
   \                     ??SampleApp_MessageMSGCB_4:
   \   0000BE                ; Setup parameters for call to function HalUARTWrite
   \   0000BE   7C01         MOV     R4,#0x1
   \   0000C0   7D00         MOV     R5,#0x0
   \   0000C2   8E..         MOV     ?V0 + 0,R6
   \   0000C4   8F..         MOV     ?V0 + 1,R7
   \   0000C6   740C         MOV     A,#0xc
   \   0000C8   78..         MOV     R0,#?V0 + 0
   \   0000CA   12....       LCALL   ?US_SHR
   \   0000CD   85..82       MOV     DPL,?XSP + 0
   \   0000D0   85..83       MOV     DPH,?XSP + 1
   \   0000D3   E582         MOV     A,DPL
   \   0000D5   25..         ADD     A,?V0 + 0
   \   0000D7   12....       LCALL   ?Subroutine5 & 0xFFFF
    484                HalUARTWrite(0, &asc_16[temp%4096/256], 1);
   \                     ??CrossCallReturnLabel_6:
   \   0000DA   EF           MOV     A,R7
   \   0000DB   F9           MOV     R1,A
   \   0000DC   E4           CLR     A
   \   0000DD   C9           XCH     A,R1
   \   0000DE   12....       LCALL   ?Subroutine7 & 0xFFFF
   \                     ??CrossCallReturnLabel_8:
   \   0000E1   FA           MOV     R2,A
   \   0000E2   E583         MOV     A,DPH
   \   0000E4   3400         ADDC    A,#0x0
   \   0000E6   FB           MOV     R3,A
   \   0000E7   12....       LCALL   ?Subroutine9 & 0xFFFF
    485                HalUARTWrite(0, &asc_16[temp%256/16], 1);
   \                     ??CrossCallReturnLabel_10:
   \   0000EA   EE           MOV     A,R6
   \   0000EB   C4           SWAP    A
   \   0000EC   12....       LCALL   ?Subroutine7 & 0xFFFF
   \                     ??CrossCallReturnLabel_9:
   \   0000EF   12....       LCALL   ?Subroutine5 & 0xFFFF
    486                HalUARTWrite(0, &asc_16[temp%16], 1);
   \                     ??CrossCallReturnLabel_7:
   \   0000F2   EE           MOV     A,R6
   \   0000F3   540F         ANL     A,#0xf
   \   0000F5   F8           MOV     R0,A
   \   0000F6   7900         MOV     R1,#0x0
   \   0000F8   85..82       MOV     DPL,?XSP + 0
   \   0000FB   85..83       MOV     DPH,?XSP + 1
   \   0000FE   E582         MOV     A,DPL
   \   000100   28           ADD     A,R0
   \   000101   FA           MOV     R2,A
   \   000102   E583         MOV     A,DPH
   \   000104   3400         ADDC    A,#0x0
   \   000106   FB           MOV     R3,A
   \   000107   8017         SJMP    ??CrossCallReturnLabel_15
    487                HalUARTWrite(0, "\n", 1);
    488                
    489                
    490               break;
    491                
    492          
    493              case SAMPLEAPP_FLASH_CLUSTERID:
    494          //      flashTime = BUILD_UINT16(pkt->cmd.Data[1], pkt->cmd.Data[2] );
    495          //      HalLedBlink( HAL_LED_4, 4, 50, (flashTime / 4) );
    496                HalUARTWrite(0, "Flash Data:\n", 12);
   \                     ??SampleApp_MessageMSGCB_1:
   \   000109                ; Setup parameters for call to function HalUARTWrite
   \   000109   7C0C         MOV     R4,#0xc
   \   00010B   7D00         MOV     R5,#0x0
   \   00010D   7A..         MOV     R2,#`?<Constant "Flash Data:\\n">` & 0xff
   \   00010F   7B..         MOV     R3,#(`?<Constant "Flash Data:\\n">` >> 8) & 0xff
   \   000111   7900         MOV     R1,#0x0
   \   000113   12....       LCALL   ??HalUARTWrite?relay
    497                HalUARTWrite(0, &pkt->cmd.Data[0], 4);
   \   000116                ; Setup parameters for call to function HalUARTWrite
   \   000116   7C04         MOV     R4,#0x4
   \   000118   7D00         MOV     R5,#0x0
   \   00011A   12....       LCALL   ?Subroutine10 & 0xFFFF
   \                     ??CrossCallReturnLabel_13:
   \   00011D   12....       LCALL   ??Subroutine11_0 & 0xFFFF
   \                     ??CrossCallReturnLabel_15:
   \   000120   12....       LCALL   ?Subroutine2 & 0xFFFF
    498                HalUARTWrite(0, "\n", 1);
    499                break;
    500            }
    501          }
   \                     ??CrossCallReturnLabel_1:
   \   000123   7410         MOV     A,#0x10
   \   000125   12....       LCALL   ?DEALLOC_XSTACK8
   \   000128   02....       LJMP    ?Subroutine0 & 0xFFFF

   \                                 In  segment BANKED_CODE, align 1, keep-with-next
   \                     ?Subroutine7:
   \   000000   540F         ANL     A,#0xf
   \   000002   F8           MOV     R0,A
   \   000003   85..82       MOV     DPL,?XSP + 0
   \   000006   85..83       MOV     DPH,?XSP + 1
   \   000009   E582         MOV     A,DPL
   \   00000B   28           ADD     A,R0
   \   00000C   22           RET

   \                                 In  segment BANKED_CODE, align 1, keep-with-next
   \                     ?Subroutine6:
   \   000000   7D00         MOV     R5,#0x0
   \   000002   8E82         MOV     DPL,R6
   \   000004   8F83         MOV     DPH,R7
   \   000006                REQUIRE ??Subroutine11_0
   \   000006                ; // Fall through to label ??Subroutine11_0

   \                                 In  segment BANKED_CODE, align 1, keep-with-next
   \                     ??Subroutine11_0:
   \   000000   E0           MOVX    A,@DPTR
   \   000001   FA           MOV     R2,A
   \   000002   A3           INC     DPTR
   \   000003   E0           MOVX    A,@DPTR
   \   000004   FB           MOV     R3,A
   \   000005   7900         MOV     R1,#0x0
   \   000007   22           RET

   \                                 In  segment BANKED_CODE, align 1, keep-with-next
   \                     ?Subroutine5:
   \   000000   FA           MOV     R2,A
   \   000001   E583         MOV     A,DPH
   \   000003   3400         ADDC    A,#0x0
   \   000005   FB           MOV     R3,A
   \   000006   7900         MOV     R1,#0x0
   \   000008   12....       LCALL   ?Subroutine9 & 0xFFFF
   \                     ??CrossCallReturnLabel_11:
   \   00000B   22           RET

   \                                 In  segment BANKED_CODE, align 1, keep-with-next
   \                     ?Subroutine9:
   \   000000   12....       LCALL   ??HalUARTWrite?relay
   \   000003                ; Setup parameters for call to function HalUARTWrite
   \   000003                ; Setup parameters for call to function HalUARTWrite
   \   000003                ; Setup parameters for call to function HalUARTWrite
   \   000003                ; Setup parameters for call to function HalUARTWrite
   \   000003                ; Setup parameters for call to function HalUARTWrite
   \   000003   7C01         MOV     R4,#0x1
   \   000005   7D00         MOV     R5,#0x0
   \   000007   22           RET

   \                                 In  segment BANKED_CODE, align 1, keep-with-next
   \                     ?Subroutine4:
   \   000000   12....       LCALL   ?Subroutine10 & 0xFFFF
   \                     ??CrossCallReturnLabel_14:
   \   000003   E0           MOVX    A,@DPTR
   \   000004   F8           MOV     R0,A
   \   000005   A3           INC     DPTR
   \   000006   E0           MOVX    A,@DPTR
   \   000007   F583         MOV     DPH,A
   \   000009   8882         MOV     DPL,R0
   \   00000B   E0           MOVX    A,@DPTR
   \   00000C   22           RET

   \                                 In  segment BANKED_CODE, align 1, keep-with-next
   \                     ?Subroutine10:
   \   000000   E5..         MOV     A,?V0 + 0
   \   000002   2422         ADD     A,#0x22
   \   000004   F582         MOV     DPL,A
   \   000006   E5..         MOV     A,?V0 + 1
   \   000008   3400         ADDC    A,#0x0
   \   00000A   F583         MOV     DPH,A
   \   00000C   22           RET

   \                                 In  segment BANKED_CODE, align 1, keep-with-next
   \                     ?Subroutine2:
   \   000000   12....       LCALL   ?Subroutine9 & 0xFFFF
   \                     ??CrossCallReturnLabel_12:
   \   000003   7A..         MOV     R2,#`?<Constant "\\n">` & 0xff
   \   000005   7B..         MOV     R3,#(`?<Constant "\\n">` >> 8) & 0xff
   \   000007   7900         MOV     R1,#0x0
   \   000009   12....       LCALL   ??HalUARTWrite?relay
   \   00000C   22           RET
    502          
    503          /*********************************************************************
    504           * @fn      SampleApp_SendPeriodicMessage
    505           *
    506           * @brief   Send the periodic message.
    507           *
    508           * @param   none
    509           *
    510           * @return  none
    511           */

   \                                 In  segment BANKED_CODE, align 1, keep-with-next
    512          void SampleApp_SendPeriodicMessage( void )
   \                     SampleApp_SendPeriodicMessage:
    513          {
   \   000000   74F6         MOV     A,#-0xa
   \   000002   12....       LCALL   ?BANKED_ENTER_XDATA
   \   000005                ; Saved register size: 10
   \   000005                ; Auto size: 4
   \   000005   74FC         MOV     A,#-0x4
   \   000007   12....       LCALL   ?ALLOC_XSTACK8
    514            uint8 data[4] = {'P', 'e', 'r', 'i'};
   \   00000A   85..82       MOV     DPL,?XSP + 0
   \   00000D   85..83       MOV     DPH,?XSP + 1
   \   000010   AC82         MOV     R4,DPL
   \   000012   AD83         MOV     R5,DPH
   \   000014   7583..       MOV     DPH,#(`?<Constant {80, 101, 114, 105}>` >> 8) & 0xff
   \   000017   7582..       MOV     DPL,#`?<Constant {80, 101, 114, 105}>` & 0xff
   \   00001A   7404         MOV     A,#0x4
   \   00001C   12....       LCALL   ?MOVE_LONG8_XDATA_XDATA
    515            if ( AF_DataRequest( &SampleApp_Periodic_DstAddr, &SampleApp_epDesc,
    516                                 SAMPLEAPP_PERIODIC_CLUSTERID,
    517                                 4,
    518                                 data,
    519                                 &SampleApp_TransID,
    520                                 AF_DISCV_ROUTE,
    521                                 AF_DEFAULT_RADIUS ) == afStatus_SUCCESS )
   \   00001F                ; Setup parameters for call to function AF_DataRequest
   \   00001F   75..1E       MOV     ?V0 + 0,#0x1e
   \   000022   78..         MOV     R0,#?V0 + 0
   \   000024   12....       LCALL   ?PUSH_XSTACK_I_ONE
   \   000027   75....       MOV     ?V0 + 0,#SampleApp_TransID & 0xff
   \   00002A   75....       MOV     ?V0 + 1,#(SampleApp_TransID >> 8) & 0xff
   \   00002D   78..         MOV     R0,#?V0 + 0
   \   00002F   12....       LCALL   ?PUSH_XSTACK_I_TWO
   \   000032   7403         MOV     A,#0x3
   \   000034   12....       LCALL   ?XSTACK_DISP0_8
   \   000037   8582..       MOV     ?V0 + 0,DPL
   \   00003A   8583..       MOV     ?V0 + 1,DPH
   \   00003D   78..         MOV     R0,#?V0 + 0
   \   00003F   12....       LCALL   ?PUSH_XSTACK_I_TWO
   \   000042   75..04       MOV     ?V0 + 0,#0x4
   \   000045   75..00       MOV     ?V0 + 1,#0x0
   \   000048   78..         MOV     R0,#?V0 + 0
   \   00004A   12....       LCALL   ?PUSH_XSTACK_I_TWO
   \   00004D   75..01       MOV     ?V0 + 0,#0x1
   \   000050   78..         MOV     R0,#?V0 + 0
   \   000052   12....       LCALL   ?PUSH_XSTACK_I_TWO
   \   000055   12....       LCALL   ?Subroutine8 & 0xFFFF
   \                     ??CrossCallReturnLabel_19:
   \   000058   12....       LCALL   ?DEALLOC_XSTACK8
   \   00005B   E9           MOV     A,R1
   \   00005C   700D         JNZ     ??SampleApp_SendPeriodicMessage_0
    522            {
    523              HalUARTWrite(0, "Period Succeed\n", 15);
   \   00005E                ; Setup parameters for call to function HalUARTWrite
   \   00005E   7C0F         MOV     R4,#0xf
   \   000060   7D00         MOV     R5,#0x0
   \   000062   7A..         MOV     R2,#`?<Constant "Period Succeed\\n">` & 0xff
   \   000064   7B..         MOV     R3,#(`?<Constant "Period Succeed\\n">` >> 8) & 0xff
   \   000066   12....       LCALL   ?Subroutine3 & 0xFFFF
    524              HalUARTWrite(0, data, 4);
    525            }
   \                     ??CrossCallReturnLabel_2:
   \   000069   8008         SJMP    ??SampleApp_SendPeriodicMessage_1
    526            else
    527            {
    528              // Error occurred in request to send.
    529              HalUARTWrite(0, "Period Failed\n", 14);
   \                     ??SampleApp_SendPeriodicMessage_0:
   \   00006B                ; Setup parameters for call to function HalUARTWrite
   \   00006B   7C0E         MOV     R4,#0xe
   \   00006D   7D00         MOV     R5,#0x0
   \   00006F   7A..         MOV     R2,#`?<Constant "Period Failed\\n">` & 0xff
   \   000071   7B..         MOV     R3,#(`?<Constant "Period Failed\\n">` >> 8) & 0xff
    530            }
   \                     ??SampleApp_SendPeriodicMessage_1:
   \   000073   80..         SJMP    ?Subroutine1
    531          }

   \                                 In  segment BANKED_CODE, align 1, keep-with-next
   \                     ?Subroutine1:
   \   000000   7900         MOV     R1,#0x0
   \   000002   12....       LCALL   ??HalUARTWrite?relay
   \   000005   7404         MOV     A,#0x4
   \   000007                REQUIRE ??Subroutine12_0
   \   000007                ; // Fall through to label ??Subroutine12_0

   \                                 In  segment BANKED_CODE, align 1, keep-with-next
   \                     ??Subroutine12_0:
   \   000000   12....       LCALL   ?DEALLOC_XSTACK8
   \   000003                REQUIRE ??Subroutine13_0
   \   000003                ; // Fall through to label ??Subroutine13_0

   \                                 In  segment BANKED_CODE, align 1, keep-with-next
   \                     ?Subroutine3:
   \   000000   7900         MOV     R1,#0x0
   \   000002   12....       LCALL   ??HalUARTWrite?relay
   \   000005                ; Setup parameters for call to function HalUARTWrite
   \   000005                ; Setup parameters for call to function HalUARTWrite
   \   000005   7C04         MOV     R4,#0x4
   \   000007   7D00         MOV     R5,#0x0
   \   000009   85..82       MOV     DPL,?XSP + 0
   \   00000C   85..83       MOV     DPH,?XSP + 1
   \   00000F   AA82         MOV     R2,DPL
   \   000011   AB83         MOV     R3,DPH
   \   000013   22           RET
    532          
    533          /*********************************************************************
    534           * @fn      SampleApp_SendFlashMessage
    535           *
    536           * @brief   Send the flash message to group 1.
    537           *
    538           * @param   flashTime - in milliseconds
    539           *
    540           * @return  none
    541           */

   \                                 In  segment BANKED_CODE, align 1, keep-with-next
    542          void SampleApp_SendFlashMessage( uint16 flashTime )
   \                     SampleApp_SendFlashMessage:
    543          {
   \   000000   74F6         MOV     A,#-0xa
   \   000002   12....       LCALL   ?BANKED_ENTER_XDATA
   \   000005                ; Saved register size: 10
   \   000005                ; Auto size: 3
   \   000005   74FD         MOV     A,#-0x3
   \   000007   12....       LCALL   ?ALLOC_XSTACK8
    544            uint8 buffer[3];
    545            buffer[0] = (uint8)(SampleAppFlashCounter++);
   \   00000A   90....       MOV     DPTR,#SampleAppFlashCounter
   \   00000D   E0           MOVX    A,@DPTR
   \   00000E   85..82       MOV     DPL,?XSP + 0
   \   000011   85..83       MOV     DPH,?XSP + 1
   \   000014   F0           MOVX    @DPTR,A
   \   000015   90....       MOV     DPTR,#SampleAppFlashCounter
   \   000018   E0           MOVX    A,@DPTR
   \   000019   04           INC     A
   \   00001A   F0           MOVX    @DPTR,A
    546            buffer[1] = LO_UINT16( flashTime );
   \   00001B   7401         MOV     A,#0x1
   \   00001D   12....       LCALL   ?XSTACK_DISP0_8
   \   000020   EA           MOV     A,R2
   \   000021   F0           MOVX    @DPTR,A
    547            buffer[2] = HI_UINT16( flashTime );
   \   000022   7402         MOV     A,#0x2
   \   000024   12....       LCALL   ?XSTACK_DISP0_8
   \   000027   EB           MOV     A,R3
   \   000028   F0           MOVX    @DPTR,A
    548          
    549            if ( AF_DataRequest( &SampleApp_Flash_DstAddr, &SampleApp_epDesc,
    550                                 SAMPLEAPP_FLASH_CLUSTERID,
    551                                 3,
    552                                 buffer,
    553                                 &SampleApp_TransID,
    554                                 AF_DISCV_ROUTE,
    555                                 AF_DEFAULT_RADIUS ) == afStatus_SUCCESS )
   \   000029                ; Setup parameters for call to function AF_DataRequest
   \   000029   75..1E       MOV     ?V0 + 0,#0x1e
   \   00002C   78..         MOV     R0,#?V0 + 0
   \   00002E   12....       LCALL   ?PUSH_XSTACK_I_ONE
   \   000031   75....       MOV     ?V0 + 0,#SampleApp_TransID & 0xff
   \   000034   75....       MOV     ?V0 + 1,#(SampleApp_TransID >> 8) & 0xff
   \   000037   78..         MOV     R0,#?V0 + 0
   \   000039   12....       LCALL   ?PUSH_XSTACK_I_TWO
   \   00003C   7403         MOV     A,#0x3
   \   00003E   12....       LCALL   ?XSTACK_DISP0_8
   \   000041   8582..       MOV     ?V0 + 0,DPL
   \   000044   8583..       MOV     ?V0 + 1,DPH
   \   000047   78..         MOV     R0,#?V0 + 0
   \   000049   12....       LCALL   ?PUSH_XSTACK_I_TWO
   \   00004C   75..03       MOV     ?V0 + 0,#0x3
   \   00004F   75..00       MOV     ?V0 + 1,#0x0
   \   000052   78..         MOV     R0,#?V0 + 0
   \   000054   12....       LCALL   ?PUSH_XSTACK_I_TWO
   \   000057   75..02       MOV     ?V0 + 0,#0x2
   \   00005A   78..         MOV     R0,#?V0 + 0
   \   00005C   12....       LCALL   ?PUSH_XSTACK_I_TWO
   \   00005F   7920         MOV     R1,#0x20
   \   000061   7C..         MOV     R4,#SampleApp_epDesc & 0xff
   \   000063   7D..         MOV     R5,#(SampleApp_epDesc >> 8) & 0xff
   \   000065   7A..         MOV     R2,#SampleApp_Flash_DstAddr & 0xff
   \   000067   7B..         MOV     R3,#(SampleApp_Flash_DstAddr >> 8) & 0xff
   \   000069   12....       LCALL   ??Subroutine14_0 & 0xFFFF
   \                     ??CrossCallReturnLabel_20:
   \   00006C   12....       LCALL   ?DEALLOC_XSTACK8
    556            {
    557            }
    558            else
    559            {
    560              // Error occurred in request to send.
    561            }
    562          }
   \   00006F   7403         MOV     A,#0x3
   \   000071   80..         SJMP    ??Subroutine12_0
    563          
    564          /*********************************************************************
    565          *********************************************************************/
    566          

   \                                 In  segment BANKED_CODE, align 1, keep-with-next
    567          void SampleApp_SendPointToPointMessage(void)
   \                     SampleApp_SendPointToPointMessage:
    568          {
   \   000000   74F6         MOV     A,#-0xa
   \   000002   12....       LCALL   ?BANKED_ENTER_XDATA
   \   000005                ; Saved register size: 10
   \   000005                ; Auto size: 1
   \   000005   74FF         MOV     A,#-0x1
   \   000007   12....       LCALL   ?ALLOC_XSTACK8
    569            uint8 device;
    570            if (SampleApp_NwkState == DEV_ROUTER)
   \   00000A   90....       MOV     DPTR,#SampleApp_NwkState
   \   00000D   E0           MOVX    A,@DPTR
   \   00000E   6407         XRL     A,#0x7
   \   000010   700A         JNZ     ??SampleApp_SendPointToPointMessage_0
    571              device = 0x01;
   \   000012   85..82       MOV     DPL,?XSP + 0
   \   000015   85..83       MOV     DPH,?XSP + 1
   \   000018   7401         MOV     A,#0x1
   \   00001A   8011         SJMP    ??SampleApp_SendPointToPointMessage_1
    572            else if (SampleApp_NwkState == DEV_END_DEVICE)
   \                     ??SampleApp_SendPointToPointMessage_0:
   \   00001C   E0           MOVX    A,@DPTR
   \   00001D   6406         XRL     A,#0x6
   \   00001F   85..82       MOV     DPL,?XSP + 0
   \   000022   85..83       MOV     DPH,?XSP + 1
   \   000025   7004         JNZ     ??SampleApp_SendPointToPointMessage_2
    573              device = 0x02;
   \   000027   7402         MOV     A,#0x2
   \   000029   8002         SJMP    ??SampleApp_SendPointToPointMessage_1
    574            else
    575              device = 0x03;
   \                     ??SampleApp_SendPointToPointMessage_2:
   \   00002B   7403         MOV     A,#0x3
   \                     ??SampleApp_SendPointToPointMessage_1:
   \   00002D   F0           MOVX    @DPTR,A
    576            
    577            if (AF_DataRequest(&Point_To_Point_DstAddr,
    578                               &SampleApp_epDesc,
    579                               SAPMLEAPP_POINT_TO_POINT_CLUSTERID,
    580                               1,
    581                               &device,
    582                               &SampleApp_TransID,
    583                               AF_DISCV_ROUTE,
    584                               AF_DEFAULT_RADIUS) == afStatus_SUCCESS)
   \   00002E                ; Setup parameters for call to function AF_DataRequest
   \   00002E   75..1E       MOV     ?V0 + 0,#0x1e
   \   000031   78..         MOV     R0,#?V0 + 0
   \   000033   12....       LCALL   ?PUSH_XSTACK_I_ONE
   \   000036   75....       MOV     ?V0 + 0,#SampleApp_TransID & 0xff
   \   000039   75....       MOV     ?V0 + 1,#(SampleApp_TransID >> 8) & 0xff
   \   00003C   78..         MOV     R0,#?V0 + 0
   \   00003E   12....       LCALL   ?PUSH_XSTACK_I_TWO
   \   000041   7403         MOV     A,#0x3
   \   000043   12....       LCALL   ?XSTACK_DISP0_8
   \   000046   8582..       MOV     ?V0 + 0,DPL
   \   000049   8583..       MOV     ?V0 + 1,DPH
   \   00004C   78..         MOV     R0,#?V0 + 0
   \   00004E   12....       LCALL   ?PUSH_XSTACK_I_TWO
   \   000051   75..01       MOV     ?V0 + 0,#0x1
   \   000054   75..00       MOV     ?V0 + 1,#0x0
   \   000057   78..         MOV     R0,#?V0 + 0
   \   000059   12....       LCALL   ?PUSH_XSTACK_I_TWO
   \   00005C   75..04       MOV     ?V0 + 0,#0x4
   \   00005F   78..         MOV     R0,#?V0 + 0
   \   000061   12....       LCALL   ?PUSH_XSTACK_I_TWO
   \   000064   7920         MOV     R1,#0x20
   \   000066   7C..         MOV     R4,#SampleApp_epDesc & 0xff
   \   000068   7D..         MOV     R5,#(SampleApp_epDesc >> 8) & 0xff
   \   00006A   7A..         MOV     R2,#Point_To_Point_DstAddr & 0xff
   \   00006C   7B..         MOV     R3,#(Point_To_Point_DstAddr >> 8) & 0xff
   \   00006E   12....       LCALL   ??Subroutine14_0 & 0xFFFF
   \                     ??CrossCallReturnLabel_21:
   \   000071   12....       LCALL   ?DEALLOC_XSTACK8
   \   000074   E9           MOV     A,R1
   \   000075   700A         JNZ     ??SampleApp_SendPointToPointMessage_3
    585            {
    586              HalUARTWrite(0, "Point to Point Succeed\n", 23);
   \   000077                ; Setup parameters for call to function HalUARTWrite
   \   000077   7C17         MOV     R4,#0x17
   \   000079   7D00         MOV     R5,#0x0
   \   00007B   7A..         MOV     R2,#`?<Constant "Point to Point Succeed\\n">` & 0xff
   \   00007D   7B..         MOV     R3,#(`?<Constant "Point to Point Succeed\\n">` >> 8) & 0xff
   \   00007F   8008         SJMP    ??SampleApp_SendPointToPointMessage_4
    587          //    HalUARTWrite(0, &device, 1);
    588            }
    589            else
    590            {
    591              HalUARTWrite(0, "Point to Point Failed\n", 22);
   \                     ??SampleApp_SendPointToPointMessage_3:
   \   000081                ; Setup parameters for call to function HalUARTWrite
   \   000081   7C16         MOV     R4,#0x16
   \   000083   7D00         MOV     R5,#0x0
   \   000085   7A..         MOV     R2,#`?<Constant "Point to Point Failed\\n">` & 0xff
   \   000087   7B..         MOV     R3,#(`?<Constant "Point to Point Failed\\n">` >> 8) & 0xff
   \                     ??SampleApp_SendPointToPointMessage_4:
   \   000089   7900         MOV     R1,#0x0
   \   00008B   12....       LCALL   ??HalUARTWrite?relay
    592            }
    593          }
   \   00008E   7401         MOV     A,#0x1
   \   000090   02....       LJMP    ??Subroutine12_0 & 0xFFFF
    594          

   \                                 In  segment BANKED_CODE, align 1, keep-with-next
    595          void SampleApp_SendGroupMessage(void)
   \                     SampleApp_SendGroupMessage:
    596          {
   \   000000   74F6         MOV     A,#-0xa
   \   000002   12....       LCALL   ?BANKED_ENTER_XDATA
   \   000005                ; Saved register size: 10
   \   000005                ; Auto size: 4
   \   000005   74FC         MOV     A,#-0x4
   \   000007   12....       LCALL   ?ALLOC_XSTACK8
    597            uint8 data[4] = {'G','o','o','d'};
   \   00000A   85..82       MOV     DPL,?XSP + 0
   \   00000D   85..83       MOV     DPH,?XSP + 1
   \   000010   AC82         MOV     R4,DPL
   \   000012   AD83         MOV     R5,DPH
   \   000014   7583..       MOV     DPH,#(`?<Constant {71, 111, 111, 100}>` >> 8) & 0xff
   \   000017   7582..       MOV     DPL,#`?<Constant {71, 111, 111, 100}>` & 0xff
   \   00001A   7404         MOV     A,#0x4
   \   00001C   12....       LCALL   ?MOVE_LONG8_XDATA_XDATA
    598            
    599            if (AF_DataRequest(&SampleApp_Flash_DstAddr,
    600                               &SampleApp_epDesc,
    601                               SAMPLEAPP_FLASH_CLUSTERID,
    602                               4,
    603                               data,
    604                               &SampleApp_TransID,
    605                               AF_DISCV_ROUTE,
    606                               AF_DEFAULT_RADIUS) == afStatus_SUCCESS)
   \   00001F                ; Setup parameters for call to function AF_DataRequest
   \   00001F   75..1E       MOV     ?V0 + 0,#0x1e
   \   000022   78..         MOV     R0,#?V0 + 0
   \   000024   12....       LCALL   ?PUSH_XSTACK_I_ONE
   \   000027   75....       MOV     ?V0 + 0,#SampleApp_TransID & 0xff
   \   00002A   75....       MOV     ?V0 + 1,#(SampleApp_TransID >> 8) & 0xff
   \   00002D   78..         MOV     R0,#?V0 + 0
   \   00002F   12....       LCALL   ?PUSH_XSTACK_I_TWO
   \   000032   7403         MOV     A,#0x3
   \   000034   12....       LCALL   ?XSTACK_DISP0_8
   \   000037   8582..       MOV     ?V0 + 0,DPL
   \   00003A   8583..       MOV     ?V0 + 1,DPH
   \   00003D   78..         MOV     R0,#?V0 + 0
   \   00003F   12....       LCALL   ?PUSH_XSTACK_I_TWO
   \   000042   75..04       MOV     ?V0 + 0,#0x4
   \   000045   75..00       MOV     ?V0 + 1,#0x0
   \   000048   78..         MOV     R0,#?V0 + 0
   \   00004A   12....       LCALL   ?PUSH_XSTACK_I_TWO
   \   00004D   75..02       MOV     ?V0 + 0,#0x2
   \   000050   78..         MOV     R0,#?V0 + 0
   \   000052   12....       LCALL   ?PUSH_XSTACK_I_TWO
   \   000055   7920         MOV     R1,#0x20
   \   000057   7C..         MOV     R4,#SampleApp_epDesc & 0xff
   \   000059   7D..         MOV     R5,#(SampleApp_epDesc >> 8) & 0xff
   \   00005B   7A..         MOV     R2,#SampleApp_Flash_DstAddr & 0xff
   \   00005D   7B..         MOV     R3,#(SampleApp_Flash_DstAddr >> 8) & 0xff
   \   00005F   12....       LCALL   ??Subroutine14_0 & 0xFFFF
   \                     ??CrossCallReturnLabel_22:
   \   000062   12....       LCALL   ?DEALLOC_XSTACK8
   \   000065   E9           MOV     A,R1
   \   000066   700D         JNZ     ??SampleApp_SendGroupMessage_0
    607            {
    608              HalUARTWrite(0, "Flash Succeed\n", 14);
   \   000068                ; Setup parameters for call to function HalUARTWrite
   \   000068   7C0E         MOV     R4,#0xe
   \   00006A   7D00         MOV     R5,#0x0
   \   00006C   7A..         MOV     R2,#`?<Constant "Flash Succeed\\n">` & 0xff
   \   00006E   7B..         MOV     R3,#(`?<Constant "Flash Succeed\\n">` >> 8) & 0xff
   \   000070   12....       LCALL   ?Subroutine3 & 0xFFFF
    609              HalUARTWrite(0, data, 4);
    610            }
   \                     ??CrossCallReturnLabel_3:
   \   000073   8008         SJMP    ??SampleApp_SendGroupMessage_1
    611            else
    612              HalUARTWrite(0, "Flash Failed\n", 13);
   \                     ??SampleApp_SendGroupMessage_0:
   \   000075                ; Setup parameters for call to function HalUARTWrite
   \   000075   7C0D         MOV     R4,#0xd
   \   000077   7D00         MOV     R5,#0x0
   \   000079   7A..         MOV     R2,#`?<Constant "Flash Failed\\n">` & 0xff
   \   00007B   7B..         MOV     R3,#(`?<Constant "Flash Failed\\n">` >> 8) & 0xff
   \                     ??SampleApp_SendGroupMessage_1:
   \   00007D   02....       LJMP    ?Subroutine1 & 0xFFFF
    613          }

   \                                 In  segment BANK_RELAYS, align 1
   \                     ??SampleApp_Init?relay:
   \   000000   12....       LCALL   ?BDISPATCH
   \   000003   ......       DC24    SampleApp_Init

   \                                 In  segment BANK_RELAYS, align 1
   \                     ??SampleApp_SerialCMD?relay:
   \   000000   12....       LCALL   ?BDISPATCH
   \   000003   ......       DC24    SampleApp_SerialCMD

   \                                 In  segment BANK_RELAYS, align 1
   \                     ??SampleApp_ProcessEvent?relay:
   \   000000   12....       LCALL   ?BDISPATCH
   \   000003   ......       DC24    SampleApp_ProcessEvent

   \                                 In  segment BANK_RELAYS, align 1
   \                     ??SampleApp_HandleKeys?relay:
   \   000000   12....       LCALL   ?BDISPATCH
   \   000003   ......       DC24    SampleApp_HandleKeys

   \                                 In  segment BANK_RELAYS, align 1
   \                     ??SampleApp_MessageMSGCB?relay:
   \   000000   12....       LCALL   ?BDISPATCH
   \   000003   ......       DC24    SampleApp_MessageMSGCB

   \                                 In  segment BANK_RELAYS, align 1
   \                     ??SampleApp_SendPeriodicMessage?relay:
   \   000000   12....       LCALL   ?BDISPATCH
   \   000003   ......       DC24    SampleApp_SendPeriodicMessage

   \                                 In  segment BANK_RELAYS, align 1
   \                     ??SampleApp_SendFlashMessage?relay:
   \   000000   12....       LCALL   ?BDISPATCH
   \   000003   ......       DC24    SampleApp_SendFlashMessage

   \                                 In  segment BANK_RELAYS, align 1
   \                     ??SampleApp_SendPointToPointMessage?relay:
   \   000000   12....       LCALL   ?BDISPATCH
   \   000003   ......       DC24    SampleApp_SendPointToPointMessage

   \                                 In  segment BANK_RELAYS, align 1
   \                     ??SampleApp_SendGroupMessage?relay:
   \   000000   12....       LCALL   ?BDISPATCH
   \   000003   ......       DC24    SampleApp_SendGroupMessage

   \                                 In  segment XDATA_ROM_C, align 1
   \                     `?<Constant "Hello World\\n">`:
   \   000000   48656C6C     DB "Hello World\012"
   \            6F20576F
   \            726C640A
   \            00      

   \                                 In  segment XDATA_ROM_C, align 1
   \                     `?<Constant "Group 1">`:
   \   000000   47726F75     DB "Group 1"
   \            70203100

   \                                 In  segment XDATA_ROM_C, align 1
   \                     `?<Constant "\\n">`:
   \   000000   0A00         DB "\012"

   \                                 In  segment XDATA_ROM_C, align 1
   \                     `?<Constant "AF_DataRequest Success\\n">`:
   \   000000   41465F44     DB "AF_DataRequest Success\012"
   \            61746152
   \            65717565
   \            73742053
   \            75636365
   \            73730A00

   \                                 In  segment XDATA_ROM_C, align 1
   \                     `?<Constant "AF_DataRequest Failed\\n">`:
   \   000000   41465F44     DB "AF_DataRequest Failed\012"
   \            61746152
   \            65717565
   \            73742046
   \            61696C65
   \            640A00  

   \                                 In  segment XDATA_ROM_C, align 1
   \                     `?<Constant "KEY ">`:
   \   000000   4B455920     DB "KEY "
   \            00      

   \                                 In  segment XDATA_ROM_C, align 1
   \                     `?<Constant "K1 ">`:
   \   000000   4B312000     DB "K1 "

   \                                 In  segment XDATA_ROM_C, align 1
   \                     `?<Constant "Period Data:\\n">`:
   \   000000   50657269     DB "Period Data:\012"
   \            6F642044
   \            6174613A
   \            0A00    

   \                                 In  segment XDATA_ROM_C, align 1
   \                     `?<Constant "Point to Point\\n">`:
   \   000000   506F696E     DB "Point to Point\012"
   \            7420746F
   \            20506F69
   \            6E740A00

   \                                 In  segment XDATA_ROM_C, align 1
   \                     `?<Constant "\\n\\n">`:
   \   000000   0A0A00       DB "\012\012"

   \                                 In  segment XDATA_ROM_C, align 1
   \                     `?<Constant {48, 49, 50, 51, 53, 54, 55, 56, 57`:
   \   000000   30           DB 48
   \   000001   31           DB 49
   \   000002   32           DB 50
   \   000003   33           DB 51
   \   000004   35           DB 53
   \   000005   36           DB 54
   \   000006   37           DB 55
   \   000007   38           DB 56
   \   000008   39           DB 57
   \   000009   41           DB 65
   \   00000A   42           DB 66
   \   00000B   43           DB 67
   \   00000C   44           DB 68
   \   00000D   45           DB 69
   \   00000E   46           DB 70
   \   00000F   00           DB 0

   \                                 In  segment XDATA_ROM_C, align 1
   \                     `?<Constant "ROUTER ShortAddr:0x">`:
   \   000000   524F5554     DB "ROUTER ShortAddr:0x"
   \            45522053
   \            686F7274
   \            41646472
   \            3A307800

   \                                 In  segment XDATA_ROM_C, align 1
   \                     `?<Constant "ENDDEVICE ShortAddr:0x">`:
   \   000000   454E4444     DB "ENDDEVICE ShortAddr:0x"
   \            45564943
   \            45205368
   \            6F727441
   \            6464723A
   \            307800  

   \                                 In  segment XDATA_ROM_C, align 1
   \                     `?<Constant "Flash Data:\\n">`:
   \   000000   466C6173     DB "Flash Data:\012"
   \            68204461
   \            74613A0A
   \            00      

   \                                 In  segment XDATA_ROM_C, align 1
   \                     `?<Constant {80, 101, 114, 105}>`:
   \   000000   50           DB 80
   \   000001   65           DB 101
   \   000002   72           DB 114
   \   000003   69           DB 105

   \                                 In  segment XDATA_ROM_C, align 1
   \                     `?<Constant "Period Succeed\\n">`:
   \   000000   50657269     DB "Period Succeed\012"
   \            6F642053
   \            75636365
   \            65640A00

   \                                 In  segment XDATA_ROM_C, align 1
   \                     `?<Constant "Period Failed\\n">`:
   \   000000   50657269     DB "Period Failed\012"
   \            6F642046
   \            61696C65
   \            640A00  

   \                                 In  segment XDATA_ROM_C, align 1
   \                     `?<Constant "Point to Point Succeed\\n">`:
   \   000000   506F696E     DB "Point to Point Succeed\012"
   \            7420746F
   \            20506F69
   \            6E742053
   \            75636365
   \            65640A00

   \                                 In  segment XDATA_ROM_C, align 1
   \                     `?<Constant "Point to Point Failed\\n">`:
   \   000000   506F696E     DB "Point to Point Failed\012"
   \            7420746F
   \            20506F69
   \            6E742046
   \            61696C65
   \            640A00  

   \                                 In  segment XDATA_ROM_C, align 1
   \                     `?<Constant {71, 111, 111, 100}>`:
   \   000000   47           DB 71
   \   000001   6F           DB 111
   \   000002   6F           DB 111
   \   000003   64           DB 100

   \                                 In  segment XDATA_ROM_C, align 1
   \                     `?<Constant "Flash Succeed\\n">`:
   \   000000   466C6173     DB "Flash Succeed\012"
   \            68205375
   \            63636565
   \            640A00  

   \                                 In  segment XDATA_ROM_C, align 1
   \                     `?<Constant "Flash Failed\\n">`:
   \   000000   466C6173     DB "Flash Failed\012"
   \            68204661
   \            696C6564
   \            0A00    

   Maximum stack usage in bytes:

     Function                       ISTACK PSTACK XSTACK
     --------                       ------ ------ ------
     SampleApp_HandleKeys               0      0     22
       -> HalUARTWrite                  0      0     20
       -> HalLedBlink                   0      0     20
       -> SampleApp_SendFlashMessage
                                        0      0     20
       -> aps_FindGroup                 0      0     20
       -> aps_RemoveGroup               0      0     20
       -> aps_AddGroup                  0      0     20
     SampleApp_Init                     0      0     14
       -> MT_UartInit                   0      0     22
       -> MT_UartRegisterTaskID         0      0     22
       -> HalUARTWrite                  0      0     22
       -> afRegister                    0      0     22
       -> RegisterForKeys               0      0     22
       -> osal_memcpy                   0      0     28
       -> aps_AddGroup                  0      0     22
     SampleApp_MessageMSGCB             2      0     40
       -> HalUARTWrite                  0      0     56
       -> HalUARTWrite                  0      0     56
       -> HalUARTWrite                  0      0     56
       -> HalUARTWrite                  0      0     56
       -> HalUARTWrite                  0      0     56
       -> HalUARTWrite                  0      0     56
       -> HalUARTWrite                  0      0     56
       -> HalUARTWrite                  0      0     56
       -> HalUARTWrite                  0      0     56
       -> HalUARTWrite                  0      0     56
       -> HalUARTWrite                  0      0     56
       -> HalUARTWrite                  0      0     56
       -> HalUARTWrite                  0      0     56
       -> HalUARTWrite                  0      0     56
       -> HalUARTWrite                  0      0     56
       -> HalUARTWrite                  0      0     56
     SampleApp_ProcessEvent             0      0     12
       -> osal_msg_receive              0      0     24
       -> osal_start_timerEx            0      0     24
       -> osal_msg_deallocate           0      0     24
       -> osal_msg_receive              0      0     24
       -> SampleApp_SerialCMD           0      0     24
       -> HalUARTWrite                  0      0     24
       -> SampleApp_HandleKeys          0      0     24
       -> SampleApp_MessageMSGCB        0      0     24
       -> SampleApp_SendPointToPointMessage
                                        0      0     24
       -> osal_rand                     0      0     24
       -> osal_start_timerEx            0      0     24
     SampleApp_SendFlashMessage         1      0     32
       -> AF_DataRequest                0      0     44
     SampleApp_SendGroupMessage         2      0     23
       -> AF_DataRequest                0      0     46
       -> HalUARTWrite                  0      0     28
       -> HalUARTWrite                  0      0     28
       -> HalUARTWrite                  0      0     28
     SampleApp_SendPeriodicMessage      2      0     23
       -> AF_DataRequest                0      0     46
       -> HalUARTWrite                  0      0     28
       -> HalUARTWrite                  0      0     28
       -> HalUARTWrite                  0      0     28
     SampleApp_SendPointToPointMessage
                                        0      0     32
       -> AF_DataRequest                0      0     40
       -> HalUARTWrite                  0      0     22
       -> HalUARTWrite                  0      0     22
     SampleApp_SerialCMD                0      0     35
       -> HalUARTWrite                  0      0     28
       -> HalUARTWrite                  0      0     28
       -> AF_DataRequest                0      0     46
       -> HalUARTWrite                  0      0     28
       -> HalUARTWrite                  0      0     28


   Segment part sizes:

     Function/Label                                 Bytes
     --------------                                 -----
     SampleApp_ClusterList                             8
     SampleApp_SimpleDesc                             12
     SampleApp_epDesc                                  6
     SampleApp_TaskID                                  1
     SampleApp_NwkState                                1
     SampleApp_TransID                                 1
     SampleApp_Periodic_DstAddr                       12
     SampleApp_Flash_DstAddr                          12
     Point_To_Point_DstAddr                           12
     SampleApp_Group                                  18
     SampleAppPeriodicCounter                          1
     SampleAppFlashCounter                             1
     SampleApp_Init                                  189
     SampleApp_SerialCMD                             155
     ?Subroutine8                                     10
     ??Subroutine14_0                                  6
     SampleApp_ProcessEvent                          210
     ?Subroutine0                                      5
     SampleApp_HandleKeys                             93
     ??Subroutine13_0                                  5
     SampleApp_MessageMSGCB                          299
     ?Subroutine7                                     13
     ?Subroutine6                                      6
     ??Subroutine11_0                                  8
     ?Subroutine5                                     12
     ?Subroutine9                                      8
     ?Subroutine4                                     13
     ?Subroutine10                                    13
     ?Subroutine2                                     13
     SampleApp_SendPeriodicMessage                   117
     ?Subroutine1                                      7
     ??Subroutine12_0                                  3
     ?Subroutine3                                     20
     SampleApp_SendFlashMessage                      115
     SampleApp_SendPointToPointMessage
                                                     147
     SampleApp_SendGroupMessage                      128
     ??SampleApp_Init?relay                            6
     ??SampleApp_SerialCMD?relay                       6
     ??SampleApp_ProcessEvent?relay                    6
     ??SampleApp_HandleKeys?relay                      6
     ??SampleApp_MessageMSGCB?relay                    6
     ??SampleApp_SendPeriodicMessage?relay             6
     ??SampleApp_SendFlashMessage?relay                6
     ??SampleApp_SendPointToPointMessage?relay         6
     ??SampleApp_SendGroupMessage?relay                6
     ?<Constant "Hello World\n">                      13
     ?<Constant "Group 1">                             8
     ?<Constant "\n">                                  2
     ?<Constant "AF_DataRequest Success\n">           24
     ?<Constant "AF_DataRequest Failed\n">            23
     ?<Constant "KEY ">                                5
     ?<Constant "K1 ">                                 4
     ?<Constant "Period Data:\n">                     14
     ?<Constant "Point to Point\n">                   16
     ?<Constant "\n\n">                                3
     ?<Constant {48, 49, 50, 51, 53, 54, 55, 56, 57   16
     ?<Constant "ROUTER ShortAddr:0x">                20
     ?<Constant "ENDDEVICE ShortAddr:0x">             23
     ?<Constant "Flash Data:\n">                      13
     ?<Constant {80, 101, 114, 105}>                   4
     ?<Constant "Period Succeed\n">                   16
     ?<Constant "Period Failed\n">                    15
     ?<Constant "Point to Point Succeed\n">           24
     ?<Constant "Point to Point Failed\n">            23
     ?<Constant {71, 111, 111, 100}>                   4
     ?<Constant "Flash Succeed\n">                    15
     ?<Constant "Flash Failed\n">                     14

 
 1 595 bytes in segment BANKED_CODE
    54 bytes in segment BANK_RELAYS
   319 bytes in segment XDATA_ROM_C
    65 bytes in segment XDATA_Z
 
 1 649 bytes of CODE  memory
   319 bytes of CONST memory
    65 bytes of XDATA memory

Errors: none
Warnings: 5
