###############################################################################
#                                                                             #
# IAR C/C++ Compiler V8.10.1.10194/W32 for 8051         10/Oct/2014  23:59:25 #
# Copyright 2004-2011 IAR Systems AB.                                         #
#                                                                             #
#    Core               =  plain                                              #
#    Code model         =  banked                                             #
#    Data model         =  large                                              #
#    Calling convention =  xdata reentrant                                    #
#    Constant location  =  data_rom                                           #
#    Dptr setup         =  1,16                                               #
#    Source file        =  D:\ZStack-CC2530-2.5.1a\Projects\zstack\Samples\Co #
#                          _Master\Source\SampleApp.c                         #
#    Command line       =  -f D:\ZStack-CC2530-2.5.1a\Projects\zstack\Samples #
#                          \Co_Master\CC2530DB\..\..\..\Tools\CC2530DB\f8wCoo #
#                          rd.cfg (-DCPU32MHZ -DROOT=__near_func              #
#                          -DMAC_CFG_APP_PENDING_QUEUE=TRUE                   #
#                          -DMAC_CFG_TX_DATA_MAX=5 -DMAC_CFG_TX_MAX=8         #
#                          -DMAC_CFG_RX_MAX=5 -DZDO_COORDINATOR -DRTR_NWK)    #
#                          -f D:\ZStack-CC2530-2.5.1a\Projects\zstack\Samples #
#                          \Co_Master\CC2530DB\..\..\..\Tools\CC2530DB\f8wCon #
#                          fig.cfg (-DZIGBEEPRO -DSECURE=0                    #
#                          -DZG_SECURE_DYNAMIC=0 -DREFLECTOR                  #
#                          -DDEFAULT_CHANLIST=0x00000800                      #
#                          -DZDAPP_CONFIG_PAN_ID=0xFFFF                       #
#                          -DNWK_START_DELAY=100 -DEXTENDED_JOINING_RANDOM_MA #
#                          SK=0x007F -DBEACON_REQUEST_DELAY=100               #
#                          -DBEACON_REQ_DELAY_MASK=0x00FF                     #
#                          -DLINK_STATUS_JITTER_MASK=0x007F                   #
#                          -DROUTE_EXPIRY_TIME=30 -DAPSC_ACK_WAIT_DURATION_PO #
#                          LLED=3000 -DNWK_INDIRECT_MSG_TIMEOUT=7             #
#                          -DMAX_RREQ_ENTRIES=8 -DAPSC_MAX_FRAME_RETRIES=3    #
#                          -DNWK_MAX_DATA_RETRIES=2                           #
#                          -DMAX_POLL_FAILURE_RETRIES=2 -DMAX_BCAST=9         #
#                          -DAPS_MAX_GROUPS=16 -DMAX_RTG_ENTRIES=40           #
#                          -DNWK_MAX_BINDING_ENTRIES=4                        #
#                          -DMAX_BINDING_CLUSTER_IDS=4 "-DDEFAULT_KEY={0x01,  #
#                          0x03, 0x05, 0x07, 0x09, 0x0B, 0x0D, 0x0F, 0x00,    #
#                          0x02, 0x04, 0x06, 0x08, 0x0A, 0x0C, 0x0D}"         #
#                          -DMAC_MAX_FRAME_SIZE=116                           #
#                          -DZDNWKMGR_MIN_TRANSMISSIONS=20 "-DCONST=const     #
#                          __code" -DGENERIC=__generic                        #
#                          -DRFD_RCVC_ALWAYS_ON=FALSE -DPOLL_RATE=1000        #
#                          -DQUEUED_POLL_RATE=100 -DRESPONSE_POLL_RATE=100)   #
#                          -DREJOIN_POLL_RATE=440 D:\ZStack-CC2530-2.5.1a\Pro #
#                          jects\zstack\Samples\Co_Master\Source\SampleApp.c  #
#                          -D ZTOOL_P1 -D xMT_TASK -D xMT_SYS_FUNC -D         #
#                          xMT_ZDO_FUNC -D xLCD_SUPPORTED=DEBUG -lC           #
#                          D:\ZStack-CC2530-2.5.1a\Projects\zstack\Samples\Co #
#                          _Master\CC2530DB\CoordinatorEB\List\ -lA           #
#                          D:\ZStack-CC2530-2.5.1a\Projects\zstack\Samples\Co #
#                          _Master\CC2530DB\CoordinatorEB\List\               #
#                          --diag_suppress Pe001,Pa010 -o                     #
#                          D:\ZStack-CC2530-2.5.1a\Projects\zstack\Samples\Co #
#                          _Master\CC2530DB\CoordinatorEB\Obj\ -e             #
#                          --no_code_motion --debug --core=plain --dptr=16,1  #
#                          --data_model=large --code_model=banked             #
#                          --calling_convention=xdata_reentrant               #
#                          --place_constants=data_rom --nr_virtual_regs 16    #
#                          -I D:\ZStack-CC2530-2.5.1a\Projects\zstack\Samples #
#                          \Co_Master\CC2530DB\ -I D:\ZStack-CC2530-2.5.1a\Pr #
#                          ojects\zstack\Samples\Co_Master\CC2530DB\..\Source #
#                          \ -I D:\ZStack-CC2530-2.5.1a\Projects\zstack\Sampl #
#                          es\Co_Master\CC2530DB\..\..\..\ZMain\TI2530DB\ -I  #
#                          D:\ZStack-CC2530-2.5.1a\Projects\zstack\Samples\Co #
#                          _Master\CC2530DB\..\..\..\..\..\Components\hal\inc #
#                          lude\ -I D:\ZStack-CC2530-2.5.1a\Projects\zstack\S #
#                          amples\Co_Master\CC2530DB\..\..\..\..\..\Component #
#                          s\hal\target\CC2530EB\ -I                          #
#                          D:\ZStack-CC2530-2.5.1a\Projects\zstack\Samples\Co #
#                          _Master\CC2530DB\..\..\..\..\..\Components\mac\inc #
#                          lude\ -I D:\ZStack-CC2530-2.5.1a\Projects\zstack\S #
#                          amples\Co_Master\CC2530DB\..\..\..\..\..\Component #
#                          s\mac\high_level\ -I D:\ZStack-CC2530-2.5.1a\Proje #
#                          cts\zstack\Samples\Co_Master\CC2530DB\..\..\..\..\ #
#                          ..\Components\mac\low_level\srf04\ -I              #
#                          D:\ZStack-CC2530-2.5.1a\Projects\zstack\Samples\Co #
#                          _Master\CC2530DB\..\..\..\..\..\Components\mac\low #
#                          _level\srf04\single_chip\ -I                       #
#                          D:\ZStack-CC2530-2.5.1a\Projects\zstack\Samples\Co #
#                          _Master\CC2530DB\..\..\..\..\..\Components\mt\ -I  #
#                          D:\ZStack-CC2530-2.5.1a\Projects\zstack\Samples\Co #
#                          _Master\CC2530DB\..\..\..\..\..\Components\osal\in #
#                          clude\ -I D:\ZStack-CC2530-2.5.1a\Projects\zstack\ #
#                          Samples\Co_Master\CC2530DB\..\..\..\..\..\Componen #
#                          ts\services\saddr\ -I D:\ZStack-CC2530-2.5.1a\Proj #
#                          ects\zstack\Samples\Co_Master\CC2530DB\..\..\..\.. #
#                          \..\Components\services\sdata\ -I                  #
#                          D:\ZStack-CC2530-2.5.1a\Projects\zstack\Samples\Co #
#                          _Master\CC2530DB\..\..\..\..\..\Components\stack\a #
#                          f\ -I D:\ZStack-CC2530-2.5.1a\Projects\zstack\Samp #
#                          les\Co_Master\CC2530DB\..\..\..\..\..\Components\s #
#                          tack\nwk\ -I D:\ZStack-CC2530-2.5.1a\Projects\zsta #
#                          ck\Samples\Co_Master\CC2530DB\..\..\..\..\..\Compo #
#                          nents\stack\sapi\ -I D:\ZStack-CC2530-2.5.1a\Proje #
#                          cts\zstack\Samples\Co_Master\CC2530DB\..\..\..\..\ #
#                          ..\Components\stack\sec\ -I                        #
#                          D:\ZStack-CC2530-2.5.1a\Projects\zstack\Samples\Co #
#                          _Master\CC2530DB\..\..\..\..\..\Components\stack\s #
#                          ys\ -I D:\ZStack-CC2530-2.5.1a\Projects\zstack\Sam #
#                          ples\Co_Master\CC2530DB\..\..\..\..\..\Components\ #
#                          stack\zdo\ -I D:\ZStack-CC2530-2.5.1a\Projects\zst #
#                          ack\Samples\Co_Master\CC2530DB\..\..\..\..\..\Comp #
#                          onents\zmac\ -I D:\ZStack-CC2530-2.5.1a\Projects\z #
#                          stack\Samples\Co_Master\CC2530DB\..\..\..\..\..\Co #
#                          mponents\zmac\f8w\ -Ohz --require_prototypes       #
#    List file          =  D:\ZStack-CC2530-2.5.1a\Projects\zstack\Samples\Co #
#                          _Master\CC2530DB\CoordinatorEB\List\SampleApp.lst  #
#    Object file        =  D:\ZStack-CC2530-2.5.1a\Projects\zstack\Samples\Co #
#                          _Master\CC2530DB\CoordinatorEB\Obj\SampleApp.r51   #
#                                                                             #
#                                                                             #
###############################################################################

D:\ZStack-CC2530-2.5.1a\Projects\zstack\Samples\Co_Master\Source\SampleApp.c
      1          /**************************************************************************************************
      2            Filename:       SampleApp.c
      3            Revised:        $Date: 2009-03-18 15:56:27 -0700 (Wed, 18 Mar 2009) $
      4            Revision:       $Revision: 19453 $
      5          
      6            Description:    Sample Application (no Profile).
      7          
      8          
      9            Copyright 2007 Texas Instruments Incorporated. All rights reserved.
     10          
     11            IMPORTANT: Your use of this Software is limited to those specific rights
     12            granted under the terms of a software license agreement between the user
     13            who downloaded the software, his/her employer (which must be your employer)
     14            and Texas Instruments Incorporated (the "License").  You may not use this
     15            Software unless you agree to abide by the terms of the License. The License
     16            limits your use, and you acknowledge, that the Software may not be modified,
     17            copied or distributed unless embedded on a Texas Instruments microcontroller
     18            or used solely and exclusively in conjunction with a Texas Instruments radio
     19            frequency transceiver, which is integrated into your product.  Other than for
     20            the foregoing purpose, you may not use, reproduce, copy, prepare derivative
     21            works of, modify, distribute, perform, display or sell this Software and/or
     22            its documentation for any purpose.
     23          
     24            YOU FURTHER ACKNOWLEDGE AND AGREE THAT THE SOFTWARE AND DOCUMENTATION ARE
     25            PROVIDED “AS IS?WITHOUT WARRANTY OF ANY KIND, EITHER EXPRESS OR IMPLIED,
     26            INCLUDING WITHOUT LIMITATION, ANY WARRANTY OF MERCHANTABILITY, TITLE,
     27            NON-INFRINGEMENT AND FITNESS FOR A PARTICULAR PURPOSE. IN NO EVENT SHALL
     28            TEXAS INSTRUMENTS OR ITS LICENSORS BE LIABLE OR OBLIGATED UNDER CONTRACT,
     29            NEGLIGENCE, STRICT LIABILITY, CONTRIBUTION, BREACH OF WARRANTY, OR OTHER
     30            LEGAL EQUITABLE THEORY ANY DIRECT OR INDIRECT DAMAGES OR EXPENSES
     31            INCLUDING BUT NOT LIMITED TO ANY INCIDENTAL, SPECIAL, INDIRECT, PUNITIVE
     32            OR CONSEQUENTIAL DAMAGES, LOST PROFITS OR LOST DATA, COST OF PROCUREMENT
     33            OF SUBSTITUTE GOODS, TECHNOLOGY, SERVICES, OR ANY CLAIMS BY THIRD PARTIES
     34            (INCLUDING BUT NOT LIMITED TO ANY DEFENSE THEREOF), OR OTHER SIMILAR COSTS.
     35          
     36            Should you have any questions regarding your right to use this Software,
     37            contact Texas Instruments Incorporated at www.TI.com.
     38          **************************************************************************************************/
     39          
     40          /*********************************************************************
     41            This application isn't intended to do anything useful, it is
     42            intended to be a simple example of an application's structure.
     43          
     44            This application sends it's messages either as broadcast or
     45            broadcast filtered group messages.  The other (more normal)
     46            message addressing is unicast.  Most of the other sample
     47            applications are written to support the unicast message model.
     48          
     49            Key control:
     50              SW1:  Sends a flash command to all devices in Group 1.
     51              SW2:  Adds/Removes (toggles) this device in and out
     52                    of Group 1.  This will enable and disable the
     53                    reception of the flash command.
     54          *********************************************************************/
     55          
     56          /*********************************************************************
     57           * INCLUDES
     58           */
     59          #include "OSAL.h"
     60          #include "ZGlobals.h"
     61          #include "AF.h"
     62          #include "aps_groups.h"
     63          #include "ZDApp.h"
     64          
     65          #include "SampleApp.h"
     66          #include "SampleAppHw.h"
     67          
     68          #include "OnBoard.h"
     69          
     70          /* HAL */
     71          #include "hal_lcd.h"
     72          #include "hal_led.h"
     73          #include "hal_key.h"
     74          #include "MT_UART.h"
     75          
     76          /*********************************************************************
     77           * MACROS
     78           */
     79          
     80          #define uint unsigned int
     81          
     82          /*********************************************************************
     83           * CONSTANTS
     84           */
     85          
     86          /*********************************************************************
     87           * TYPEDEFS
     88           */
     89          
     90          /*********************************************************************
     91           * GLOBAL VARIABLES
     92           */
     93          
     94          // This list should be filled with Application specific Cluster IDs.

   \                                 In  segment XDATA_ROM_C, align 1
     95          const cId_t SampleApp_ClusterList[SAMPLEAPP_MAX_CLUSTERS] =
   \                     SampleApp_ClusterList:
   \   000000   0100         DW 1
   \   000002   0200         DW 2
   \   000004   0000         DW 0
     96          {
     97            SAMPLEAPP_PERIODIC_CLUSTERID,
     98            SAMPLEAPP_FLASH_CLUSTERID
     99          };
    100          

   \                                 In  segment XDATA_ROM_C, align 1
    101          const SimpleDescriptionFormat_t SampleApp_SimpleDesc =
   \                     SampleApp_SimpleDesc:
   \   000000   14           DB 20
   \   000001   080F         DW 3848
   \   000003   0100         DW 1
   \   000005   00           DB 0
   \   000006   03           DB 3
   \   000007   ....         DW SampleApp_ClusterList
   \   000009   03           DB 3
   \   00000A   ....         DW SampleApp_ClusterList
    102          {
    103            SAMPLEAPP_ENDPOINT,              //  int Endpoint;
    104            SAMPLEAPP_PROFID,                //  uint16 AppProfId[2];
    105            SAMPLEAPP_DEVICEID,              //  uint16 AppDeviceId[2];
    106            SAMPLEAPP_DEVICE_VERSION,        //  int   AppDevVer:4;
    107            SAMPLEAPP_FLAGS,                 //  int   AppFlags:4;
    108            SAMPLEAPP_MAX_CLUSTERS,          //  uint8  AppNumInClusters;
    109            (cId_t *)SampleApp_ClusterList,  //  uint8 *pAppInClusterList;
    110            SAMPLEAPP_MAX_CLUSTERS,          //  uint8  AppNumInClusters;
    111            (cId_t *)SampleApp_ClusterList   //  uint8 *pAppInClusterList;
    112          };
    113          
    114          // This is the Endpoint/Interface description.  It is defined here, but
    115          // filled-in in SampleApp_Init().  Another way to go would be to fill
    116          // in the structure here and make it a "const" (in code space).  The
    117          // way it's defined in this sample app it is define in RAM.

   \                                 In  segment XDATA_Z, align 1, keep-with-next
    118          endPointDesc_t SampleApp_epDesc;
   \                     SampleApp_epDesc:
   \   000000                DS 6
   \   000006                REQUIRE __INIT_XDATA_Z
    119          
    120          /*********************************************************************
    121           * EXTERNAL VARIABLES
    122           */
    123          
    124          /*********************************************************************
    125           * EXTERNAL FUNCTIONS
    126           */
    127          
    128          /*********************************************************************
    129           * LOCAL VARIABLES
    130           */

   \                                 In  segment XDATA_Z, align 1, keep-with-next
    131          uint8 SampleApp_TaskID;   // Task ID for internal task/event processing
   \                     SampleApp_TaskID:
   \   000000                DS 1
   \   000001                REQUIRE __INIT_XDATA_Z
    132                                    // This variable will be received when
    133                                    // SampleApp_Init() is called.

   \                                 In  segment XDATA_Z, align 1, keep-with-next
    134          devStates_t SampleApp_NwkState;
   \                     SampleApp_NwkState:
   \   000000                DS 1
   \   000001                REQUIRE __INIT_XDATA_Z
    135          

   \                                 In  segment XDATA_Z, align 1, keep-with-next
    136          uint8 SampleApp_TransID;  // This is the unique message ID (counter)
   \                     SampleApp_TransID:
   \   000000                DS 1
   \   000001                REQUIRE __INIT_XDATA_Z
    137          

   \                                 In  segment XDATA_Z, align 1, keep-with-next
    138          afAddrType_t SampleApp_Periodic_DstAddr;
   \                     SampleApp_Periodic_DstAddr:
   \   000000                DS 12
   \   00000C                REQUIRE __INIT_XDATA_Z

   \                                 In  segment XDATA_Z, align 1, keep-with-next
    139          afAddrType_t SampleApp_Flash_DstAddr;
   \                     SampleApp_Flash_DstAddr:
   \   000000                DS 12
   \   00000C                REQUIRE __INIT_XDATA_Z
    140          

   \                                 In  segment XDATA_Z, align 1, keep-with-next
    141          aps_Group_t SampleApp_Group;
   \                     SampleApp_Group:
   \   000000                DS 18
   \   000012                REQUIRE __INIT_XDATA_Z
    142          

   \                                 In  segment XDATA_Z, align 1, keep-with-next
    143          uint8 SampleAppPeriodicCounter = 0;
   \                     SampleAppPeriodicCounter:
   \   000000                DS 1
   \   000001                REQUIRE __INIT_XDATA_Z

   \                                 In  segment XDATA_Z, align 1, keep-with-next
    144          uint8 SampleAppFlashCounter = 0;
   \                     SampleAppFlashCounter:
   \   000000                DS 1
   \   000001                REQUIRE __INIT_XDATA_Z
    145          
    146          /*********************************************************************
    147           * LOCAL FUNCTIONS
    148           */
    149          void SampleApp_HandleKeys( uint8 shift, uint8 keys );
    150          void SampleApp_MessageMSGCB( afIncomingMSGPacket_t *pckt );
    151          void SampleApp_SendPeriodicMessage( void );
    152          void SampleApp_SendFlashMessage( uint16 flashTime );
    153          
    154          /*********************************************************************
    155           * NETWORK LAYER CALLBACKS
    156           */
    157          
    158          /*********************************************************************
    159           * PUBLIC FUNCTIONS
    160           */
    161          
    162          /*********************************************************************
    163           * @fn      SampleApp_Init
    164           *
    165           * @brief   Initialization function for the Generic App Task.
    166           *          This is called during initialization and should contain
    167           *          any application specific initialization (ie. hardware
    168           *          initialization/setup, table initialization, power up
    169           *          notificaiton ... ).
    170           *
    171           * @param   task_id - the ID assigned by OSAL.  This ID should be
    172           *                    used to send messages and set timers.
    173           *
    174           * @return  none
    175           */

   \                                 In  segment BANKED_CODE, align 1, keep-with-next
    176          void SampleApp_Init( uint8 task_id )
   \                     SampleApp_Init:
    177          {
   \   000000   74F5         MOV     A,#-0xb
   \   000002   12....       LCALL   ?BANKED_ENTER_XDATA
   \   000005                ; Saved register size: 11
   \   000005                ; Auto size: 0
   \   000005   E9           MOV     A,R1
   \   000006   FE           MOV     R6,A
    178            SampleApp_TaskID = task_id;
   \   000007   90....       MOV     DPTR,#SampleApp_TaskID
   \   00000A   F0           MOVX    @DPTR,A
    179            SampleApp_NwkState = DEV_INIT;
   \   00000B   90....       MOV     DPTR,#SampleApp_NwkState
   \   00000E   7401         MOV     A,#0x1
   \   000010   F0           MOVX    @DPTR,A
    180            SampleApp_TransID = 0;
   \   000011   90....       MOV     DPTR,#SampleApp_TransID
   \   000014   E4           CLR     A
   \   000015   F0           MOVX    @DPTR,A
    181            MT_UartInit();
   \   000016                ; Setup parameters for call to function MT_UartInit
   \   000016   12....       LCALL   ??MT_UartInit?relay
    182            MT_UartRegisterTaskID(task_id);
   \   000019                ; Setup parameters for call to function MT_UartRegisterTaskID
   \   000019   EE           MOV     A,R6
   \   00001A   F9           MOV     R1,A
   \   00001B   12....       LCALL   ??MT_UartRegisterTaskID?relay
    183            
    184            
    185            HalUARTWrite(0, "In Cor Init\n", sizeof("In Cor Init\n")-1);
   \   00001E                ; Setup parameters for call to function HalUARTWrite
   \   00001E   7C0C         MOV     R4,#0xc
   \   000020   7D00         MOV     R5,#0x0
   \   000022   7A..         MOV     R2,#`?<Constant "In Cor Init\\n">` & 0xff
   \   000024   7B..         MOV     R3,#(`?<Constant "In Cor Init\\n">` >> 8) & 0xff
   \   000026   7900         MOV     R1,#0x0
   \   000028   12....       LCALL   ??HalUARTWrite?relay
    186          
    187            // Device hardware initialization can be added here or in main() (Zmain.c).
    188            // If the hardware is application specific - add it here.
    189            // If the hardware is other parts of the device add it in main().
    190          
    191           #if defined ( BUILD_ALL_DEVICES )
    192            // The "Demo" target is setup to have BUILD_ALL_DEVICES and HOLD_AUTO_START
    193            // We are looking at a jumper (defined in SampleAppHw.c) to be jumpered
    194            // together - if they are - we will start up a coordinator. Otherwise,
    195            // the device will start as a router.
    196            if ( readCoordinatorJumper() )
    197              zgDeviceLogicalType = ZG_DEVICETYPE_COORDINATOR;
    198            else
    199              zgDeviceLogicalType = ZG_DEVICETYPE_ROUTER;
    200          #endif // BUILD_ALL_DEVICES
    201          
    202          #if defined ( HOLD_AUTO_START )
    203            // HOLD_AUTO_START is a compile option that will surpress ZDApp
    204            //  from starting the device and wait for the application to
    205            //  start the device.
    206            ZDOInitDevice(0);
    207          #endif
    208          
    209            // Setup for the periodic message's destination address
    210            // Broadcast to everyone
    211            SampleApp_Periodic_DstAddr.addrMode = (afAddrMode_t)AddrBroadcast;
   \   00002B   90....       MOV     DPTR,#SampleApp_Periodic_DstAddr + 8
   \   00002E   740F         MOV     A,#0xf
   \   000030   F0           MOVX    @DPTR,A
    212            SampleApp_Periodic_DstAddr.endPoint = SAMPLEAPP_ENDPOINT;
   \   000031   A3           INC     DPTR
   \   000032   7414         MOV     A,#0x14
   \   000034   F0           MOVX    @DPTR,A
    213            SampleApp_Periodic_DstAddr.addr.shortAddr = 0xFFFF;
   \   000035   90....       MOV     DPTR,#SampleApp_Periodic_DstAddr
   \   000038   74FF         MOV     A,#-0x1
   \   00003A   F0           MOVX    @DPTR,A
   \   00003B   A3           INC     DPTR
   \   00003C   F0           MOVX    @DPTR,A
    214          
    215            // Setup for the flash command's destination address - Group 1
    216            SampleApp_Flash_DstAddr.addrMode = (afAddrMode_t)afAddrGroup;
   \   00003D   90....       MOV     DPTR,#SampleApp_Flash_DstAddr + 8
   \   000040   7401         MOV     A,#0x1
   \   000042   F0           MOVX    @DPTR,A
    217            SampleApp_Flash_DstAddr.endPoint = SAMPLEAPP_ENDPOINT;
   \   000043   A3           INC     DPTR
   \   000044   7414         MOV     A,#0x14
   \   000046   F0           MOVX    @DPTR,A
    218            SampleApp_Flash_DstAddr.addr.shortAddr = SAMPLEAPP_FLASH_GROUP;
   \   000047   90....       MOV     DPTR,#SampleApp_Flash_DstAddr
   \   00004A   7401         MOV     A,#0x1
   \   00004C   F0           MOVX    @DPTR,A
   \   00004D   A3           INC     DPTR
   \   00004E   E4           CLR     A
   \   00004F   F0           MOVX    @DPTR,A
    219          
    220            // Fill out the endpoint description.
    221            SampleApp_epDesc.endPoint = SAMPLEAPP_ENDPOINT;
   \   000050   90....       MOV     DPTR,#SampleApp_epDesc
   \   000053   7414         MOV     A,#0x14
   \   000055   F0           MOVX    @DPTR,A
    222            SampleApp_epDesc.task_id = &SampleApp_TaskID;
   \   000056   A3           INC     DPTR
   \   000057   74..         MOV     A,#SampleApp_TaskID & 0xff
   \   000059   F0           MOVX    @DPTR,A
   \   00005A   A3           INC     DPTR
   \   00005B   74..         MOV     A,#(SampleApp_TaskID >> 8) & 0xff
   \   00005D   F0           MOVX    @DPTR,A
    223            SampleApp_epDesc.simpleDesc
    224                      = (SimpleDescriptionFormat_t *)&SampleApp_SimpleDesc;
   \   00005E   A3           INC     DPTR
   \   00005F   74..         MOV     A,#SampleApp_SimpleDesc & 0xff
   \   000061   F0           MOVX    @DPTR,A
   \   000062   A3           INC     DPTR
   \   000063   74..         MOV     A,#(SampleApp_SimpleDesc >> 8) & 0xff
   \   000065   F0           MOVX    @DPTR,A
    225            SampleApp_epDesc.latencyReq = noLatencyReqs;
   \   000066   A3           INC     DPTR
   \   000067   E4           CLR     A
   \   000068   F0           MOVX    @DPTR,A
    226          
    227            // Register the endpoint description with the AF
    228            afRegister( &SampleApp_epDesc );
   \   000069                ; Setup parameters for call to function afRegister
   \   000069   7A..         MOV     R2,#SampleApp_epDesc & 0xff
   \   00006B   7B..         MOV     R3,#(SampleApp_epDesc >> 8) & 0xff
   \   00006D   12....       LCALL   ??afRegister?relay
    229          
    230            // Register for all key events - This app will handle all key events
    231            RegisterForKeys( SampleApp_TaskID );
   \   000070                ; Setup parameters for call to function RegisterForKeys
   \   000070   90....       MOV     DPTR,#SampleApp_TaskID
   \   000073   E0           MOVX    A,@DPTR
   \   000074   F9           MOV     R1,A
   \   000075   12....       LCALL   ??RegisterForKeys?relay
    232          
    233            // By default, all devices start out in Group 1
    234            SampleApp_Group.ID = 0x0001;
   \   000078   90....       MOV     DPTR,#SampleApp_Group
   \   00007B   7401         MOV     A,#0x1
   \   00007D   F0           MOVX    @DPTR,A
   \   00007E   A3           INC     DPTR
   \   00007F   E4           CLR     A
   \   000080   F0           MOVX    @DPTR,A
    235            osal_memcpy( SampleApp_Group.name, "Group 1", 7  );
   \   000081                ; Setup parameters for call to function osal_memcpy
   \   000081   75....       MOV     ?V0 + 0,#`?<Constant "Group 1">` & 0xff
   \   000084   75....       MOV     ?V0 + 1,#(`?<Constant "Group 1">` >> 8) & 0xff
   \   000087   F5..         MOV     ?V0 + 2,A
   \   000089   78..         MOV     R0,#?V0 + 0
   \   00008B   12....       LCALL   ?PUSH_XSTACK_I_THREE
   \   00008E   7C07         MOV     R4,#0x7
   \   000090   7D00         MOV     R5,#0x0
   \   000092   7A..         MOV     R2,#(SampleApp_Group + 2) & 0xff
   \   000094   7B..         MOV     R3,#((SampleApp_Group + 2) >> 8) & 0xff
   \   000096   12....       LCALL   ??osal_memcpy?relay
   \   000099   7403         MOV     A,#0x3
   \   00009B   12....       LCALL   ?DEALLOC_XSTACK8
    236            aps_AddGroup( SAMPLEAPP_ENDPOINT, &SampleApp_Group );
   \   00009E                ; Setup parameters for call to function aps_AddGroup
   \   00009E   7A..         MOV     R2,#SampleApp_Group & 0xff
   \   0000A0   7B..         MOV     R3,#(SampleApp_Group >> 8) & 0xff
   \   0000A2   7914         MOV     R1,#0x14
   \   0000A4   12....       LCALL   ??aps_AddGroup?relay
    237          
    238          #if defined ( LCD_SUPPORTED )
    239            HalLcdWriteString( "SampleApp", HAL_LCD_LINE_1 );
    240          #endif
    241          }
   \   0000A7   7F03         MOV     R7,#0x3
   \   0000A9   02....       LJMP    ?BANKED_LEAVE_XDATA
    242          
    243          /*********************************************************************
    244           * @fn      SampleApp_ProcessEvent
    245           *
    246           * @brief   Generic Application Task event processor.  This function
    247           *          is called to process all events for the task.  Events
    248           *          include timers, messages and any other user defined events.
    249           *
    250           * @param   task_id  - The OSAL assigned task ID.
    251           * @param   events - events to process.  This is a bit map and can
    252           *                   contain more than one event.
    253           *
    254           * @return  none
    255           */

   \                                 In  segment BANKED_CODE, align 1, keep-with-next
    256          uint16 SampleApp_ProcessEvent( uint8 task_id, uint16 events )
   \                     SampleApp_ProcessEvent:
    257          {
   \   000000   74F4         MOV     A,#-0xc
   \   000002   12....       LCALL   ?BANKED_ENTER_XDATA
   \   000005                ; Saved register size: 12
   \   000005                ; Auto size: 0
   \   000005   EA           MOV     A,R2
   \   000006   FE           MOV     R6,A
   \   000007   EB           MOV     A,R3
   \   000008   FF           MOV     R7,A
    258            afIncomingMSGPacket_t *MSGpkt;
    259            (void)task_id;  // Intentionally unreferenced parameter
    260          
    261            if ( events & SYS_EVENT_MSG )
   \   000009   5480         ANL     A,#0x80
   \   00000B   7003         JNZ     $+5
   \   00000D   02....       LJMP    ??SampleApp_ProcessEvent_0 & 0xFFFF
    262            {
    263              MSGpkt = (afIncomingMSGPacket_t *)osal_msg_receive( SampleApp_TaskID );
   \   000010                ; Setup parameters for call to function osal_msg_receive
   \   000010   8014         SJMP    ??SampleApp_ProcessEvent_1
    264              while ( MSGpkt )
    265              {
    266                switch ( MSGpkt->hdr.event )
    267                {
    268                  // Received when a key is pressed
    269                  case KEY_CHANGE:
    270                    SampleApp_HandleKeys( ((keyChange_t *)MSGpkt)->state, ((keyChange_t *)MSGpkt)->keys );
    271                    break;
    272          
    273                  // Received when a messages is received (OTA) for this endpoint
    274                  case AF_INCOMING_MSG_CMD:
    275                    SampleApp_MessageMSGCB( MSGpkt );
    276                    break;
    277          
    278                  // Received whenever the device changes state in the network
    279                  case ZDO_STATE_CHANGE:
    280                    SampleApp_NwkState = (devStates_t)(MSGpkt->hdr.status);
    281                    if ( (SampleApp_NwkState == DEV_ZB_COORD)
    282                        || (SampleApp_NwkState == DEV_ROUTER)
    283                        || (SampleApp_NwkState == DEV_END_DEVICE) )
    284                    {
    285                      // Start sending the periodic message in a regular interval.
    286                      osal_start_timerEx( SampleApp_TaskID,
    287                                        SAMPLEAPP_SEND_PERIODIC_MSG_EVT,
    288                                        SAMPLEAPP_SEND_PERIODIC_MSG_TIMEOUT );
    289                    }
    290                    else
    291                    {
    292                      // Device is no longer in the network
    293                      HalUARTWrite(0, "out\n", 4);
   \                     ??SampleApp_ProcessEvent_2:
   \   000012                ; Setup parameters for call to function HalUARTWrite
   \   000012   7C04         MOV     R4,#0x4
   \   000014   7D00         MOV     R5,#0x0
   \   000016   7A..         MOV     R2,#`?<Constant "out\\n">` & 0xff
   \   000018   7B..         MOV     R3,#(`?<Constant "out\\n">` >> 8) & 0xff
   \   00001A   7900         MOV     R1,#0x0
   \   00001C   12....       LCALL   ??HalUARTWrite?relay
    294                    }
    295                    break;
    296          
    297                  default:
    298                    break;
    299                }
    300          
    301                // Release the memory
    302                osal_msg_deallocate( (uint8 *)MSGpkt );
   \                     ??SampleApp_ProcessEvent_3:
   \   00001F                ; Setup parameters for call to function osal_msg_deallocate
   \   00001F   AA..         MOV     R2,?V0 + 0
   \   000021   AB..         MOV     R3,?V0 + 1
   \   000023   12....       LCALL   ??osal_msg_deallocate?relay
    303          
    304                // Next - if one is available
    305                MSGpkt = (afIncomingMSGPacket_t *)osal_msg_receive( SampleApp_TaskID );
   \   000026                ; Setup parameters for call to function osal_msg_receive
   \                     ??SampleApp_ProcessEvent_1:
   \   000026   90....       MOV     DPTR,#SampleApp_TaskID
   \   000029   E0           MOVX    A,@DPTR
   \   00002A   F9           MOV     R1,A
   \   00002B   12....       LCALL   ??osal_msg_receive?relay
   \   00002E   8A..         MOV     ?V0 + 0,R2
   \   000030   8B..         MOV     ?V0 + 1,R3
   \   000032   E5..         MOV     A,?V0 + 0
   \   000034   45..         ORL     A,?V0 + 1
   \   000036   6058         JZ      ??SampleApp_ProcessEvent_4
   \   000038   85..82       MOV     DPL,?V0 + 0
   \   00003B   85..83       MOV     DPH,?V0 + 1
   \   00003E   E0           MOVX    A,@DPTR
   \   00003F   24E6         ADD     A,#-0x1a
   \   000041   601E         JZ      ??SampleApp_ProcessEvent_5
   \   000043   245A         ADD     A,#0x5a
   \   000045   6006         JZ      ??SampleApp_ProcessEvent_6
   \   000047   24EF         ADD     A,#-0x11
   \   000049   601F         JZ      ??SampleApp_ProcessEvent_7
   \   00004B   80D2         SJMP    ??SampleApp_ProcessEvent_3
   \                     ??SampleApp_ProcessEvent_6:
   \   00004D                ; Setup parameters for call to function SampleApp_HandleKeys
   \   00004D   A3           INC     DPTR
   \   00004E   A3           INC     DPTR
   \   00004F   A3           INC     DPTR
   \   000050   E0           MOVX    A,@DPTR
   \   000051   FA           MOV     R2,A
   \   000052   85..82       MOV     DPL,?V0 + 0
   \   000055   85..83       MOV     DPH,?V0 + 1
   \   000058   A3           INC     DPTR
   \   000059   A3           INC     DPTR
   \   00005A   E0           MOVX    A,@DPTR
   \   00005B   F9           MOV     R1,A
   \   00005C   12....       LCALL   ??SampleApp_HandleKeys?relay
   \   00005F   80BE         SJMP    ??SampleApp_ProcessEvent_3
   \                     ??SampleApp_ProcessEvent_5:
   \   000061                ; Setup parameters for call to function SampleApp_MessageMSGCB
   \   000061   AA..         MOV     R2,?V0 + 0
   \   000063   AB..         MOV     R3,?V0 + 1
   \   000065   12....       LCALL   ??SampleApp_MessageMSGCB?relay
   \   000068   80B5         SJMP    ??SampleApp_ProcessEvent_3
   \                     ??SampleApp_ProcessEvent_7:
   \   00006A   A3           INC     DPTR
   \   00006B   E0           MOVX    A,@DPTR
   \   00006C   90....       MOV     DPTR,#SampleApp_NwkState
   \   00006F   F0           MOVX    @DPTR,A
   \   000070   6409         XRL     A,#0x9
   \   000072   600A         JZ      ??SampleApp_ProcessEvent_8
   \   000074   E0           MOVX    A,@DPTR
   \   000075   6407         XRL     A,#0x7
   \   000077   6005         JZ      ??SampleApp_ProcessEvent_8
   \   000079   E0           MOVX    A,@DPTR
   \   00007A   6406         XRL     A,#0x6
   \   00007C   7094         JNZ     ??SampleApp_ProcessEvent_2
   \                     ??SampleApp_ProcessEvent_8:
   \   00007E                ; Setup parameters for call to function osal_start_timerEx
   \   00007E   7C88         MOV     R4,#-0x78
   \   000080   7D13         MOV     R5,#0x13
   \   000082   7A01         MOV     R2,#0x1
   \   000084   7B00         MOV     R3,#0x0
   \   000086   90....       MOV     DPTR,#SampleApp_TaskID
   \   000089   E0           MOVX    A,@DPTR
   \   00008A   F9           MOV     R1,A
   \   00008B   12....       LCALL   ??osal_start_timerEx?relay
   \   00008E   808F         SJMP    ??SampleApp_ProcessEvent_3
    306              }
    307          
    308              // return unprocessed events
    309              return (events ^ SYS_EVENT_MSG);
   \                     ??SampleApp_ProcessEvent_4:
   \   000090   EE           MOV     A,R6
   \   000091   FA           MOV     R2,A
   \   000092   EF           MOV     A,R7
   \   000093   6480         XRL     A,#0x80
   \                     ??SampleApp_ProcessEvent_9:
   \   000095   FB           MOV     R3,A
   \   000096   8027         SJMP    ??SampleApp_ProcessEvent_10
    310            }
    311          
    312            // Send a message out - This event is generated by a timer
    313            //  (setup in SampleApp_Init()).
    314            if ( events & SAMPLEAPP_SEND_PERIODIC_MSG_EVT )
   \                     ??SampleApp_ProcessEvent_0:
   \   000098   EE           MOV     A,R6
   \   000099   A2E0         MOV     C,0xE0 /* A   */.0
   \   00009B   501E         JNC     ??SampleApp_ProcessEvent_11
    315            {
    316              // Send the periodic message
    317              //SampleApp_SendPeriodicMessage();
    318          
    319              // Setup to send message again in normal period (+ a little jitter)
    320              osal_start_timerEx( SampleApp_TaskID, SAMPLEAPP_SEND_PERIODIC_MSG_EVT,
    321                  (SAMPLEAPP_SEND_PERIODIC_MSG_TIMEOUT + (osal_rand() & 0x00FF)) );
   \   00009D                ; Setup parameters for call to function osal_rand
   \   00009D   12....       LCALL   ??osal_rand?relay
   \   0000A0                ; Setup parameters for call to function osal_start_timerEx
   \   0000A0   EA           MOV     A,R2
   \   0000A1   2488         ADD     A,#-0x78
   \   0000A3   FC           MOV     R4,A
   \   0000A4   E4           CLR     A
   \   0000A5   3413         ADDC    A,#0x13
   \   0000A7   FD           MOV     R5,A
   \   0000A8   7A01         MOV     R2,#0x1
   \   0000AA   7B00         MOV     R3,#0x0
   \   0000AC   90....       MOV     DPTR,#SampleApp_TaskID
   \   0000AF   E0           MOVX    A,@DPTR
   \   0000B0   F9           MOV     R1,A
   \   0000B1   12....       LCALL   ??osal_start_timerEx?relay
    322          
    323              // return unprocessed events
    324              return (events ^ SAMPLEAPP_SEND_PERIODIC_MSG_EVT);
   \   0000B4   EE           MOV     A,R6
   \   0000B5   6401         XRL     A,#0x1
   \   0000B7   FA           MOV     R2,A
   \   0000B8   EF           MOV     A,R7
   \   0000B9   80DA         SJMP    ??SampleApp_ProcessEvent_9
    325            }
    326          
    327            // Discard unknown events
    328            return 0;
   \                     ??SampleApp_ProcessEvent_11:
   \   0000BB   7A00         MOV     R2,#0x0
   \   0000BD   7B00         MOV     R3,#0x0
   \                     ??SampleApp_ProcessEvent_10:
   \   0000BF   7F04         MOV     R7,#0x4
   \   0000C1   02....       LJMP    ?BANKED_LEAVE_XDATA
    329          }
    330          
    331          /*********************************************************************
    332           * Event Generation Functions
    333           */
    334          /*********************************************************************
    335           * @fn      SampleApp_HandleKeys
    336           *
    337           * @brief   Handles all key events for this device.
    338           *
    339           * @param   shift - true if in shift/alt.
    340           * @param   keys - bit field for key events. Valid entries:
    341           *                 HAL_KEY_SW_2
    342           *                 HAL_KEY_SW_1
    343           *
    344           * @return  none
    345           */

   \                                 In  segment BANKED_CODE, align 1, keep-with-next
    346          void SampleApp_HandleKeys( uint8 shift, uint8 keys )
   \                     SampleApp_HandleKeys:
    347          {
   \   000000   74F6         MOV     A,#-0xa
   \   000002   12....       LCALL   ?BANKED_ENTER_XDATA
   \   000005                ; Saved register size: 10
   \   000005                ; Auto size: 0
   \   000005   EA           MOV     A,R2
   \   000006   FE           MOV     R6,A
    348            (void)shift;  // Intentionally unreferenced parameter
    349            
    350            if ( keys & HAL_KEY_SW_1 )
   \   000007   A2E0         MOV     C,0xE0 /* A   */.0
   \   000009   5007         JNC     ??SampleApp_HandleKeys_0
    351            {
    352              /* This key sends the Flash Command is sent to Group 1.
    353               * This device will not receive the Flash Command from this
    354               * device (even if it belongs to group 1).
    355               */
    356              SampleApp_SendFlashMessage( SAMPLEAPP_FLASH_DURATION );
   \   00000B                ; Setup parameters for call to function SampleApp_SendFlashMessage
   \   00000B   7AE8         MOV     R2,#-0x18
   \   00000D   7B03         MOV     R3,#0x3
   \   00000F   12....       LCALL   ??SampleApp_SendFlashMessage?relay
    357            }
    358          
    359            if ( keys & HAL_KEY_SW_2 )
   \                     ??SampleApp_HandleKeys_0:
   \   000012   EE           MOV     A,R6
   \   000013   A2E1         MOV     C,0xE0 /* A   */.1
   \   000015   5024         JNC     ??SampleApp_HandleKeys_1
    360            {
    361              /* The Flashr Command is sent to Group 1.
    362               * This key toggles this device in and out of group 1.
    363               * If this device doesn't belong to group 1, this application
    364               * will not receive the Flash command sent to group 1.
    365               */
    366              aps_Group_t *grp;
    367              grp = aps_FindGroup( SAMPLEAPP_ENDPOINT, SAMPLEAPP_FLASH_GROUP );
    368              if ( grp )
   \   000017                ; Setup parameters for call to function aps_FindGroup
   \   000017   7A01         MOV     R2,#0x1
   \   000019   7B00         MOV     R3,#0x0
   \   00001B   7914         MOV     R1,#0x14
   \   00001D   12....       LCALL   ??aps_FindGroup?relay
   \   000020   8B..         MOV     ?V0 + 1,R3
   \   000022   EA           MOV     A,R2
   \   000023   45..         ORL     A,?V0 + 1
   \   000025   600B         JZ      ??SampleApp_HandleKeys_2
    369              {
    370                // Remove from the group
    371                aps_RemoveGroup( SAMPLEAPP_ENDPOINT, SAMPLEAPP_FLASH_GROUP );
   \   000027                ; Setup parameters for call to function aps_RemoveGroup
   \   000027   7A01         MOV     R2,#0x1
   \   000029   7B00         MOV     R3,#0x0
   \   00002B   7914         MOV     R1,#0x14
   \   00002D   12....       LCALL   ??aps_RemoveGroup?relay
   \   000030   8009         SJMP    ??SampleApp_HandleKeys_1
    372              }
    373              else
    374              {
    375                // Add to the flash group
    376                aps_AddGroup( SAMPLEAPP_ENDPOINT, &SampleApp_Group );
   \                     ??SampleApp_HandleKeys_2:
   \   000032                ; Setup parameters for call to function aps_AddGroup
   \   000032   7A..         MOV     R2,#SampleApp_Group & 0xff
   \   000034   7B..         MOV     R3,#(SampleApp_Group >> 8) & 0xff
   \   000036   7914         MOV     R1,#0x14
   \   000038   12....       LCALL   ??aps_AddGroup?relay
    377              }
    378            }
    379          }
   \                     ??SampleApp_HandleKeys_1:
   \   00003B   02....       LJMP    ??Subroutine7_0 & 0xFFFF

   \                                 In  segment BANKED_CODE, align 1, keep-with-next
   \                     ??Subroutine7_0:
   \   000000   7F02         MOV     R7,#0x2
   \   000002   02....       LJMP    ?BANKED_LEAVE_XDATA
    380          
    381          /*********************************************************************
    382           * LOCAL FUNCTIONS
    383           */
    384          
    385          /*********************************************************************
    386           * @fn      SampleApp_MessageMSGCB
    387           *
    388           * @brief   Data message processor callback.  This function processes
    389           *          any incoming data - probably from other devices.  So, based
    390           *          on cluster ID, perform the intended action.
    391           *
    392           * @param   none
    393           *
    394           * @return  none
    395           */

   \                                 In  segment BANKED_CODE, align 1, keep-with-next
    396          void SampleApp_MessageMSGCB( afIncomingMSGPacket_t *pkt )
   \                     SampleApp_MessageMSGCB:
    397          {
   \   000000   74F6         MOV     A,#-0xa
   \   000002   12....       LCALL   ?BANKED_ENTER_XDATA
   \   000005                ; Saved register size: 10
   \   000005                ; Auto size: 16
   \   000005   74F0         MOV     A,#-0x10
   \   000007   12....       LCALL   ?ALLOC_XSTACK8
   \   00000A   EA           MOV     A,R2
   \   00000B   FE           MOV     R6,A
   \   00000C   EB           MOV     A,R3
   \   00000D   FF           MOV     R7,A
    398            uint16 flashTime;
    399            HalUARTWrite(0, "MsgCB\n", sizeof("MsgCB\n")-1);
   \   00000E                ; Setup parameters for call to function HalUARTWrite
   \   00000E   7C06         MOV     R4,#0x6
   \   000010   7D00         MOV     R5,#0x0
   \   000012   7A..         MOV     R2,#`?<Constant "MsgCB\\n">` & 0xff
   \   000014   7B..         MOV     R3,#(`?<Constant "MsgCB\\n">` >> 8) & 0xff
   \   000016   7900         MOV     R1,#0x0
   \   000018   12....       LCALL   ??HalUARTWrite?relay
    400            uint8 asc[16] = "0124567889ABCDEF";
   \   00001B   85..82       MOV     DPL,?XSP + 0
   \   00001E   85..83       MOV     DPH,?XSP + 1
   \   000021   AC82         MOV     R4,DPL
   \   000023   AD83         MOV     R5,DPH
   \   000025   7583..       MOV     DPH,#(`?<Constant "0124567889ABCDEF">` >> 8) & 0xff
   \   000028   7582..       MOV     DPL,#`?<Constant "0124567889ABCDEF">` & 0xff
   \   00002B   7410         MOV     A,#0x10
   \   00002D   12....       LCALL   ?MOVE_LONG8_XDATA_XDATA
    401            switch ( pkt->clusterId )
   \   000030   8E82         MOV     DPL,R6
   \   000032   8F83         MOV     DPH,R7
   \   000034   A3           INC     DPTR
   \   000035   A3           INC     DPTR
   \   000036   A3           INC     DPTR
   \   000037   A3           INC     DPTR
   \   000038   E0           MOVX    A,@DPTR
   \   000039   F5..         MOV     ?V0 + 0,A
   \   00003B   A3           INC     DPTR
   \   00003C   E0           MOVX    A,@DPTR
   \   00003D   F5..         MOV     ?V0 + 1,A
   \   00003F   78..         MOV     R0,#?V0 + 0
   \   000041   12....       LCALL   ?US_SWITCH_DENSE
   \                     `?<Jumptable for SampleApp_MessageMSGCB>_0`:
   \   000044   0200         DW        2
   \   000046   01           DB        1
   \   000047   ....         DW        ??SampleApp_MessageMSGCB_0
   \   000049   ....         DW        ??SampleApp_MessageMSGCB_1
   \   00004B   ....         DW        ??SampleApp_MessageMSGCB_2
    402            {
    403              case SAMPLEAPP_POINT_CLUSTERID:
    404                HalUARTWrite(0, "Point Msg\n", sizeof("Point Msg\n")-1);
   \                     ??SampleApp_MessageMSGCB_2:
   \   00004D                ; Setup parameters for call to function HalUARTWrite
   \   00004D   7C0A         MOV     R4,#0xa
   \   00004F   7D00         MOV     R5,#0x0
   \   000051   7A..         MOV     R2,#`?<Constant "Point Msg\\n">` & 0xff
   \   000053   7B..         MOV     R3,#(`?<Constant "Point Msg\\n">` >> 8) & 0xff
   \   000055   7900         MOV     R1,#0x0
   \   000057   12....       LCALL   ??HalUARTWrite?relay
    405                uint temp;
    406                
    407                switch(pkt->cmd.Data[0])
   \   00005A   12....       LCALL   ?Subroutine2 & 0xFFFF
   \                     ??CrossCallReturnLabel_2:
   \   00005D   F583         MOV     DPH,A
   \   00005F   8882         MOV     DPL,R0
   \   000061   E0           MOVX    A,@DPTR
   \   000062   6012         JZ      ??SampleApp_MessageMSGCB_3
   \   000064   14           DEC     A
   \   000065   6078         JZ      ??SampleApp_MessageMSGCB_4
   \   000067   14           DEC     A
   \   000068   7003         JNZ     $+5
   \   00006A   02....       LJMP    ??SampleApp_MessageMSGCB_5 & 0xFFFF
   \   00006D   14           DEC     A
   \   00006E   7003         JNZ     $+5
   \   000070   02....       LJMP    ??SampleApp_MessageMSGCB_6 & 0xFFFF
   \   000073   02....       LJMP    ??SampleApp_MessageMSGCB_7 & 0xFFFF
    408                {
    409                  case SHORTADDR_INFO:
    410                    temp = pkt->srcAddr.addr.shortAddr;
   \                     ??SampleApp_MessageMSGCB_3:
   \   000076   8E82         MOV     DPL,R6
   \   000078   8F83         MOV     DPH,R7
   \   00007A   A3           INC     DPTR
   \   00007B   A3           INC     DPTR
   \   00007C   A3           INC     DPTR
   \   00007D   A3           INC     DPTR
   \   00007E   A3           INC     DPTR
   \   00007F   A3           INC     DPTR
   \   000080   E0           MOVX    A,@DPTR
   \   000081   FE           MOV     R6,A
   \   000082   A3           INC     DPTR
   \   000083   E0           MOVX    A,@DPTR
   \   000084   FF           MOV     R7,A
    411                    HalUARTWrite(0, &asc[temp / 4096], 1);
   \   000085                ; Setup parameters for call to function HalUARTWrite
   \   000085   7C01         MOV     R4,#0x1
   \   000087   7D00         MOV     R5,#0x0
   \   000089   8E..         MOV     ?V0 + 0,R6
   \   00008B   8F..         MOV     ?V0 + 1,R7
   \   00008D   740C         MOV     A,#0xc
   \   00008F   78..         MOV     R0,#?V0 + 0
   \   000091   12....       LCALL   ?US_SHR
   \   000094   85..82       MOV     DPL,?XSP + 0
   \   000097   85..83       MOV     DPH,?XSP + 1
   \   00009A   E582         MOV     A,DPL
   \   00009C   25..         ADD     A,?V0 + 0
   \   00009E   FA           MOV     R2,A
   \   00009F   E583         MOV     A,DPH
   \   0000A1   3400         ADDC    A,#0x0
   \   0000A3   FB           MOV     R3,A
   \   0000A4   7900         MOV     R1,#0x0
   \   0000A6   12....       LCALL   ?Subroutine5 & 0xFFFF
    412                    HalUARTWrite(0, &asc[temp % 4096 / 256], 1);
   \                     ??CrossCallReturnLabel_8:
   \   0000A9   EF           MOV     A,R7
   \   0000AA   F9           MOV     R1,A
   \   0000AB   E4           CLR     A
   \   0000AC   C9           XCH     A,R1
   \   0000AD   12....       LCALL   ?Subroutine1 & 0xFFFF
   \                     ??CrossCallReturnLabel_0:
   \   0000B0   12....       LCALL   ?Subroutine4 & 0xFFFF
    413                    HalUARTWrite(0, &asc[temp % 256 / 16], 1);
   \                     ??CrossCallReturnLabel_6:
   \   0000B3   C4           SWAP    A
   \   0000B4   12....       LCALL   ?Subroutine1 & 0xFFFF
   \                     ??CrossCallReturnLabel_1:
   \   0000B7   7900         MOV     R1,#0x0
   \   0000B9   12....       LCALL   ?Subroutine4 & 0xFFFF
    414                    HalUARTWrite(0, &asc[temp % 16], 1);
   \                     ??CrossCallReturnLabel_7:
   \   0000BC   540F         ANL     A,#0xf
   \   0000BE   F8           MOV     R0,A
   \   0000BF   7900         MOV     R1,#0x0
   \   0000C1   85..82       MOV     DPL,?XSP + 0
   \   0000C4   85..83       MOV     DPH,?XSP + 1
   \   0000C7   E582         MOV     A,DPL
   \   0000C9   28           ADD     A,R0
   \   0000CA   FA           MOV     R2,A
   \   0000CB   E583         MOV     A,DPH
   \   0000CD   3400         ADDC    A,#0x0
   \   0000CF   FB           MOV     R3,A
   \                     ??SampleApp_MessageMSGCB_8:
   \   0000D0   12....       LCALL   ?Subroutine5 & 0xFFFF
    415                    HalUARTWrite(0, "\n", 1);
   \                     ??CrossCallReturnLabel_9:
   \   0000D3   7A..         MOV     R2,#`?<Constant "\\n">` & 0xff
   \   0000D5   7B..         MOV     R3,#(`?<Constant "\\n">` >> 8) & 0xff
   \                     ??SampleApp_MessageMSGCB_9:
   \   0000D7   7900         MOV     R1,#0x0
   \   0000D9   12....       LCALL   ??HalUARTWrite?relay
    416                    break;
   \   0000DC   02....       LJMP    ??SampleApp_MessageMSGCB_0 & 0xFFFF
    417                    
    418                    
    419                  case TYPE_INFO: 
    420                    temp = pkt->cmd.Data[1];
   \                     ??SampleApp_MessageMSGCB_4:
   \   0000DF   12....       LCALL   ?Subroutine3 & 0xFFFF
   \                     ??CrossCallReturnLabel_4:
   \   0000E2   A3           INC     DPTR
   \   0000E3   E0           MOVX    A,@DPTR
   \   0000E4   F583         MOV     DPH,A
   \   0000E6   8882         MOV     DPL,R0
   \   0000E8   A3           INC     DPTR
   \   0000E9   E0           MOVX    A,@DPTR
   \   0000EA   FE           MOV     R6,A
    421                    if (temp == 0x01)
   \   0000EB   6401         XRL     A,#0x1
   \   0000ED   700A         JNZ     ??SampleApp_MessageMSGCB_10
    422                      HalUARTWrite(0, "Ep\n", 3);
   \   0000EF                ; Setup parameters for call to function HalUARTWrite
   \   0000EF   7C03         MOV     R4,#0x3
   \   0000F1   7D00         MOV     R5,#0x0
   \   0000F3   7A..         MOV     R2,#`?<Constant "Ep\\n">` & 0xff
   \   0000F5   7B..         MOV     R3,#(`?<Constant "Ep\\n">` >> 8) & 0xff
   \   0000F7   80DE         SJMP    ??SampleApp_MessageMSGCB_9
    423                    else if (temp == 0x02)
   \                     ??SampleApp_MessageMSGCB_10:
   \   0000F9   EE           MOV     A,R6
   \   0000FA   6402         XRL     A,#0x2
   \   0000FC   7C03         MOV     R4,#0x3
   \   0000FE   7D00         MOV     R5,#0x0
   \   000100   7006         JNZ     ??SampleApp_MessageMSGCB_11
    424                      HalUARTWrite(0, "Rt\n", 3);
   \   000102                ; Setup parameters for call to function HalUARTWrite
   \   000102   7A..         MOV     R2,#`?<Constant "Rt\\n">` & 0xff
   \   000104   7B..         MOV     R3,#(`?<Constant "Rt\\n">` >> 8) & 0xff
   \   000106   80CF         SJMP    ??SampleApp_MessageMSGCB_9
    425                    else
    426                      HalUARTWrite(0, "Uk\n", 3);
   \                     ??SampleApp_MessageMSGCB_11:
   \   000108                ; Setup parameters for call to function HalUARTWrite
   \   000108   7A..         MOV     R2,#`?<Constant "Uk\\n">` & 0xff
   \   00010A   7B..         MOV     R3,#(`?<Constant "Uk\\n">` >> 8) & 0xff
   \   00010C   80C9         SJMP    ??SampleApp_MessageMSGCB_9
    427                    break;
    428                    
    429                    
    430                  case TEMP_INFO:
    431                    HalUARTWrite(0, "Temp: ", 6);
   \                     ??SampleApp_MessageMSGCB_5:
   \   00010E                ; Setup parameters for call to function HalUARTWrite
   \   00010E   7C06         MOV     R4,#0x6
   \   000110   7D00         MOV     R5,#0x0
   \   000112   7A..         MOV     R2,#`?<Constant "Temp: ">` & 0xff
   \   000114   7B..         MOV     R3,#(`?<Constant "Temp: ">` >> 8) & 0xff
   \   000116   7900         MOV     R1,#0x0
   \   000118   12....       LCALL   ??HalUARTWrite?relay
    432                    HalUARTWrite(0, &pkt->cmd.Data[1], 2);
   \   00011B                ; Setup parameters for call to function HalUARTWrite
   \   00011B   7C02         MOV     R4,#0x2
   \                     ??SampleApp_MessageMSGCB_12:
   \   00011D   7D00         MOV     R5,#0x0
   \   00011F   12....       LCALL   ?Subroutine3 & 0xFFFF
   \                     ??CrossCallReturnLabel_5:
   \   000122   E0           MOVX    A,@DPTR
   \   000123   2401         ADD     A,#0x1
   \   000125   FA           MOV     R2,A
   \   000126   A3           INC     DPTR
   \   000127   E0           MOVX    A,@DPTR
   \   000128   3400         ADDC    A,#0x0
   \   00012A   FB           MOV     R3,A
   \   00012B   7900         MOV     R1,#0x0
   \   00012D   80A1         SJMP    ??SampleApp_MessageMSGCB_8
    433                    HalUARTWrite(0, "\n", 1);
    434                    break;
    435                    
    436                  case VOL_INFO:
    437                    HalUARTWrite(0, "Vol: ", 5);
   \                     ??SampleApp_MessageMSGCB_6:
   \   00012F                ; Setup parameters for call to function HalUARTWrite
   \   00012F   7C05         MOV     R4,#0x5
   \   000131   7D00         MOV     R5,#0x0
   \   000133   7A..         MOV     R2,#`?<Constant "Vol: ">` & 0xff
   \   000135   7B..         MOV     R3,#(`?<Constant "Vol: ">` >> 8) & 0xff
   \   000137   7900         MOV     R1,#0x0
   \   000139   12....       LCALL   ??HalUARTWrite?relay
    438                    HalUARTWrite(0, &pkt->cmd.Data[1], 5);
   \   00013C                ; Setup parameters for call to function HalUARTWrite
   \   00013C   7C05         MOV     R4,#0x5
   \   00013E   80DD         SJMP    ??SampleApp_MessageMSGCB_12
    439                    HalUARTWrite(0, "\n", 1);
    440                    break;
    441                    
    442                    
    443                  default:
    444                    HalUARTWrite(0, "UkInfo\n", sizeof("UkInfo\n") - 1);
   \                     ??SampleApp_MessageMSGCB_7:
   \   000140                ; Setup parameters for call to function HalUARTWrite
   \   000140   7C07         MOV     R4,#0x7
   \   000142   7D00         MOV     R5,#0x0
   \   000144   7A..         MOV     R2,#`?<Constant "UkInfo\\n">` & 0xff
   \   000146   7B..         MOV     R3,#(`?<Constant "UkInfo\\n">` >> 8) & 0xff
   \   000148   808D         SJMP    ??SampleApp_MessageMSGCB_9
    445                }
   \                     ??SampleApp_MessageMSGCB_1:
   \   00014A   12....       LCALL   ?Subroutine2 & 0xFFFF
   \                     ??CrossCallReturnLabel_3:
   \   00014D   F9           MOV     R1,A
   \   00014E                ; Setup parameters for call to function HalLedBlink
   \   00014E   8882         MOV     DPL,R0
   \   000150   8983         MOV     DPH,R1
   \   000152   A3           INC     DPTR
   \   000153   E0           MOVX    A,@DPTR
   \   000154   FA           MOV     R2,A
   \   000155   8882         MOV     DPL,R0
   \   000157   8983         MOV     DPH,R1
   \   000159   A3           INC     DPTR
   \   00015A   A3           INC     DPTR
   \   00015B   E0           MOVX    A,@DPTR
   \   00015C   F9           MOV     R1,A
   \   00015D   EA           MOV     A,R2
   \   00015E   2400         ADD     A,#0x0
   \   000160   F5..         MOV     ?V0 + 0,A
   \   000162   E4           CLR     A
   \   000163   39           ADDC    A,R1
   \   000164   F5..         MOV     ?V0 + 1,A
   \   000166   7402         MOV     A,#0x2
   \   000168   78..         MOV     R0,#?V0 + 0
   \   00016A   12....       LCALL   ?US_SHR
   \   00016D   AC..         MOV     R4,?V0 + 0
   \   00016F   AD..         MOV     R5,?V0 + 1
   \   000171   7B32         MOV     R3,#0x32
   \   000173   7A04         MOV     R2,#0x4
   \   000175   7908         MOV     R1,#0x8
    446                break;
    447                
    448                
    449                
    450              case SAMPLEAPP_PERIODIC_CLUSTERID:
    451          //      HalUARTWrite(0, "Cor Peri\n", sizeof("Cor Peri\n")-1);
    452          //      HalUARTWrite(0, &pkt->cmd.Data[0], 5);
    453                break;
    454          
    455              case SAMPLEAPP_FLASH_CLUSTERID:
    456                flashTime = BUILD_UINT16(pkt->cmd.Data[1], pkt->cmd.Data[2] );
    457                HalLedBlink( HAL_LED_4, 4, 50, (flashTime / 4) );
   \   000177   12....       LCALL   ??HalLedBlink?relay
    458                break;
    459            }
    460          }
   \                     ??SampleApp_MessageMSGCB_0:
   \   00017A   7410         MOV     A,#0x10
   \   00017C   02....       LJMP    ?Subroutine0 & 0xFFFF

   \                                 In  segment BANKED_CODE, align 1, keep-with-next
   \                     ?Subroutine4:
   \   000000   12....       LCALL   ?Subroutine5 & 0xFFFF
   \                     ??CrossCallReturnLabel_10:
   \   000003   EE           MOV     A,R6
   \   000004   22           RET

   \                                 In  segment BANKED_CODE, align 1, keep-with-next
   \                     ?Subroutine5:
   \   000000   12....       LCALL   ??HalUARTWrite?relay
   \   000003                ; Setup parameters for call to function HalUARTWrite
   \   000003                ; Setup parameters for call to function HalUARTWrite
   \   000003                ; Setup parameters for call to function HalUARTWrite
   \   000003                ; Setup parameters for call to function HalUARTWrite
   \   000003   7C01         MOV     R4,#0x1
   \   000005   7D00         MOV     R5,#0x0
   \   000007   22           RET

   \                                 In  segment BANKED_CODE, align 1, keep-with-next
   \                     ?Subroutine3:
   \   000000   12....       LCALL   ?Subroutine6 & 0xFFFF
   \                     ??CrossCallReturnLabel_12:
   \   000003   22           RET

   \                                 In  segment BANKED_CODE, align 1, keep-with-next
   \                     ?Subroutine6:
   \   000000   EE           MOV     A,R6
   \   000001   2422         ADD     A,#0x22
   \   000003   F582         MOV     DPL,A
   \   000005   EF           MOV     A,R7
   \   000006   3400         ADDC    A,#0x0
   \   000008   F583         MOV     DPH,A
   \   00000A   22           RET

   \                                 In  segment BANKED_CODE, align 1, keep-with-next
   \                     ?Subroutine2:
   \   000000   12....       LCALL   ?Subroutine6 & 0xFFFF
   \                     ??CrossCallReturnLabel_11:
   \   000003   E0           MOVX    A,@DPTR
   \   000004   F8           MOV     R0,A
   \   000005   A3           INC     DPTR
   \   000006   E0           MOVX    A,@DPTR
   \   000007   22           RET

   \                                 In  segment BANKED_CODE, align 1, keep-with-next
   \                     ?Subroutine1:
   \   000000   540F         ANL     A,#0xf
   \   000002   F8           MOV     R0,A
   \   000003   85..82       MOV     DPL,?XSP + 0
   \   000006   85..83       MOV     DPH,?XSP + 1
   \   000009   E582         MOV     A,DPL
   \   00000B   28           ADD     A,R0
   \   00000C   FA           MOV     R2,A
   \   00000D   E583         MOV     A,DPH
   \   00000F   3400         ADDC    A,#0x0
   \   000011   FB           MOV     R3,A
   \   000012   22           RET

   \                                 In  segment BANKED_CODE, align 1, keep-with-next
   \                     ?Subroutine0:
   \   000000   12....       LCALL   ?DEALLOC_XSTACK8
   \   000003                REQUIRE ??Subroutine7_0
   \   000003                ; // Fall through to label ??Subroutine7_0
    461          
    462          /*********************************************************************
    463           * @fn      SampleApp_SendPeriodicMessage
    464           *
    465           * @brief   Send the periodic message.
    466           *
    467           * @param   none
    468           *
    469           * @return  none
    470           */

   \                                 In  segment BANKED_CODE, align 1, keep-with-next
    471          void SampleApp_SendPeriodicMessage( void )
   \                     SampleApp_SendPeriodicMessage:
    472          {
   \   000000   74F6         MOV     A,#-0xa
   \   000002   12....       LCALL   ?BANKED_ENTER_XDATA
   \   000005                ; Saved register size: 10
   \   000005                ; Auto size: 0
    473            if ( AF_DataRequest( &SampleApp_Periodic_DstAddr, &SampleApp_epDesc,
    474                                 SAMPLEAPP_PERIODIC_CLUSTERID,
    475                                 1,
    476                                 (uint8*)&SampleAppPeriodicCounter,
    477                                 &SampleApp_TransID,
    478                                 AF_DISCV_ROUTE,
    479                                 AF_DEFAULT_RADIUS ) == afStatus_SUCCESS )
   \   000005                ; Setup parameters for call to function AF_DataRequest
   \   000005   75..1E       MOV     ?V0 + 0,#0x1e
   \   000008   78..         MOV     R0,#?V0 + 0
   \   00000A   12....       LCALL   ?PUSH_XSTACK_I_ONE
   \   00000D   75....       MOV     ?V0 + 0,#SampleApp_TransID & 0xff
   \   000010   75....       MOV     ?V0 + 1,#(SampleApp_TransID >> 8) & 0xff
   \   000013   78..         MOV     R0,#?V0 + 0
   \   000015   12....       LCALL   ?PUSH_XSTACK_I_TWO
   \   000018   75....       MOV     ?V0 + 0,#SampleAppPeriodicCounter & 0xff
   \   00001B   75....       MOV     ?V0 + 1,#(SampleAppPeriodicCounter >> 8) & 0xff
   \   00001E   78..         MOV     R0,#?V0 + 0
   \   000020   12....       LCALL   ?PUSH_XSTACK_I_TWO
   \   000023   75..01       MOV     ?V0 + 0,#0x1
   \   000026   75..00       MOV     ?V0 + 1,#0x0
   \   000029   78..         MOV     R0,#?V0 + 0
   \   00002B   12....       LCALL   ?PUSH_XSTACK_I_TWO
   \   00002E   78..         MOV     R0,#?V0 + 0
   \   000030   12....       LCALL   ?PUSH_XSTACK_I_TWO
   \   000033   7920         MOV     R1,#0x20
   \   000035   7C..         MOV     R4,#SampleApp_epDesc & 0xff
   \   000037   7D..         MOV     R5,#(SampleApp_epDesc >> 8) & 0xff
   \   000039   7A..         MOV     R2,#SampleApp_Periodic_DstAddr & 0xff
   \   00003B   7B..         MOV     R3,#(SampleApp_Periodic_DstAddr >> 8) & 0xff
   \   00003D   12....       LCALL   ??AF_DataRequest?relay
   \   000040   7409         MOV     A,#0x9
   \   000042   80..         SJMP    ?Subroutine0
    480            {
    481            }
    482            else
    483            {
    484              // Error occurred in request to send.
    485            }
    486          }
    487          
    488          /*********************************************************************
    489           * @fn      SampleApp_SendFlashMessage
    490           *
    491           * @brief   Send the flash message to group 1.
    492           *
    493           * @param   flashTime - in milliseconds
    494           *
    495           * @return  none
    496           */

   \                                 In  segment BANKED_CODE, align 1, keep-with-next
    497          void SampleApp_SendFlashMessage( uint16 flashTime )
   \                     SampleApp_SendFlashMessage:
    498          {
   \   000000   74F6         MOV     A,#-0xa
   \   000002   12....       LCALL   ?BANKED_ENTER_XDATA
   \   000005                ; Saved register size: 10
   \   000005                ; Auto size: 3
   \   000005   74FD         MOV     A,#-0x3
   \   000007   12....       LCALL   ?ALLOC_XSTACK8
    499            uint8 buffer[3];
    500            buffer[0] = (uint8)(SampleAppFlashCounter++);
   \   00000A   90....       MOV     DPTR,#SampleAppFlashCounter
   \   00000D   E0           MOVX    A,@DPTR
   \   00000E   85..82       MOV     DPL,?XSP + 0
   \   000011   85..83       MOV     DPH,?XSP + 1
   \   000014   F0           MOVX    @DPTR,A
   \   000015   90....       MOV     DPTR,#SampleAppFlashCounter
   \   000018   E0           MOVX    A,@DPTR
   \   000019   04           INC     A
   \   00001A   F0           MOVX    @DPTR,A
    501            buffer[1] = LO_UINT16( flashTime );
   \   00001B   7401         MOV     A,#0x1
   \   00001D   12....       LCALL   ?XSTACK_DISP0_8
   \   000020   EA           MOV     A,R2
   \   000021   F0           MOVX    @DPTR,A
    502            buffer[2] = HI_UINT16( flashTime );
   \   000022   7402         MOV     A,#0x2
   \   000024   12....       LCALL   ?XSTACK_DISP0_8
   \   000027   EB           MOV     A,R3
   \   000028   F0           MOVX    @DPTR,A
    503          
    504            if ( AF_DataRequest( &SampleApp_Flash_DstAddr, &SampleApp_epDesc,
    505                                 SAMPLEAPP_FLASH_CLUSTERID,
    506                                 3,
    507                                 buffer,
    508                                 &SampleApp_TransID,
    509                                 AF_DISCV_ROUTE,
    510                                 AF_DEFAULT_RADIUS ) == afStatus_SUCCESS )
   \   000029                ; Setup parameters for call to function AF_DataRequest
   \   000029   75..1E       MOV     ?V0 + 0,#0x1e
   \   00002C   78..         MOV     R0,#?V0 + 0
   \   00002E   12....       LCALL   ?PUSH_XSTACK_I_ONE
   \   000031   75....       MOV     ?V0 + 0,#SampleApp_TransID & 0xff
   \   000034   75....       MOV     ?V0 + 1,#(SampleApp_TransID >> 8) & 0xff
   \   000037   78..         MOV     R0,#?V0 + 0
   \   000039   12....       LCALL   ?PUSH_XSTACK_I_TWO
   \   00003C   7403         MOV     A,#0x3
   \   00003E   12....       LCALL   ?XSTACK_DISP0_8
   \   000041   8582..       MOV     ?V0 + 0,DPL
   \   000044   8583..       MOV     ?V0 + 1,DPH
   \   000047   78..         MOV     R0,#?V0 + 0
   \   000049   12....       LCALL   ?PUSH_XSTACK_I_TWO
   \   00004C   75..03       MOV     ?V0 + 0,#0x3
   \   00004F   75..00       MOV     ?V0 + 1,#0x0
   \   000052   78..         MOV     R0,#?V0 + 0
   \   000054   12....       LCALL   ?PUSH_XSTACK_I_TWO
   \   000057   75..02       MOV     ?V0 + 0,#0x2
   \   00005A   78..         MOV     R0,#?V0 + 0
   \   00005C   12....       LCALL   ?PUSH_XSTACK_I_TWO
   \   00005F   7920         MOV     R1,#0x20
   \   000061   7C..         MOV     R4,#SampleApp_epDesc & 0xff
   \   000063   7D..         MOV     R5,#(SampleApp_epDesc >> 8) & 0xff
   \   000065   7A..         MOV     R2,#SampleApp_Flash_DstAddr & 0xff
   \   000067   7B..         MOV     R3,#(SampleApp_Flash_DstAddr >> 8) & 0xff
   \   000069   12....       LCALL   ??AF_DataRequest?relay
   \   00006C   7409         MOV     A,#0x9
   \   00006E   12....       LCALL   ?DEALLOC_XSTACK8
    511            {
    512            }
    513            else
    514            {
    515              // Error occurred in request to send.
    516            }
    517          }
   \   000071   7403         MOV     A,#0x3
   \   000073                REQUIRE ?Subroutine0
   \   000073                ; // Fall through to label ?Subroutine0

   \                                 In  segment BANK_RELAYS, align 1
   \                     ??SampleApp_Init?relay:
   \   000000   12....       LCALL   ?BDISPATCH
   \   000003   ......       DC24    SampleApp_Init

   \                                 In  segment BANK_RELAYS, align 1
   \                     ??SampleApp_ProcessEvent?relay:
   \   000000   12....       LCALL   ?BDISPATCH
   \   000003   ......       DC24    SampleApp_ProcessEvent

   \                                 In  segment BANK_RELAYS, align 1
   \                     ??SampleApp_HandleKeys?relay:
   \   000000   12....       LCALL   ?BDISPATCH
   \   000003   ......       DC24    SampleApp_HandleKeys

   \                                 In  segment BANK_RELAYS, align 1
   \                     ??SampleApp_MessageMSGCB?relay:
   \   000000   12....       LCALL   ?BDISPATCH
   \   000003   ......       DC24    SampleApp_MessageMSGCB

   \                                 In  segment BANK_RELAYS, align 1
   \                     ??SampleApp_SendPeriodicMessage?relay:
   \   000000   12....       LCALL   ?BDISPATCH
   \   000003   ......       DC24    SampleApp_SendPeriodicMessage

   \                                 In  segment BANK_RELAYS, align 1
   \                     ??SampleApp_SendFlashMessage?relay:
   \   000000   12....       LCALL   ?BDISPATCH
   \   000003   ......       DC24    SampleApp_SendFlashMessage

   \                                 In  segment XDATA_ROM_C, align 1
   \                     `?<Constant "In Cor Init\\n">`:
   \   000000   496E2043     DB "In Cor Init\012"
   \            6F722049
   \            6E69740A
   \            00      

   \                                 In  segment XDATA_ROM_C, align 1
   \                     `?<Constant "Group 1">`:
   \   000000   47726F75     DB "Group 1"
   \            70203100

   \                                 In  segment XDATA_ROM_C, align 1
   \                     `?<Constant "out\\n">`:
   \   000000   6F75740A     DB "out\012"
   \            00      

   \                                 In  segment XDATA_ROM_C, align 1
   \                     `?<Constant "MsgCB\\n">`:
   \   000000   4D736743     DB "MsgCB\012"
   \            420A00  

   \                                 In  segment XDATA_ROM_C, align 1
   \                     `?<Constant "0124567889ABCDEF">`:
   \   000000   30313234     DB 30H, 31H, 32H, 34H, 35H, 36H, 37H, 38H
   \            35363738
   \   000008   38394142     DB 38H, 39H, 41H, 42H, 43H, 44H, 45H, 46H
   \            43444546

   \                                 In  segment XDATA_ROM_C, align 1
   \                     `?<Constant "Point Msg\\n">`:
   \   000000   506F696E     DB "Point Msg\012"
   \            74204D73
   \            670A00  

   \                                 In  segment XDATA_ROM_C, align 1
   \                     `?<Constant "\\n">`:
   \   000000   0A00         DB "\012"

   \                                 In  segment XDATA_ROM_C, align 1
   \                     `?<Constant "Ep\\n">`:
   \   000000   45700A00     DB "Ep\012"

   \                                 In  segment XDATA_ROM_C, align 1
   \                     `?<Constant "Rt\\n">`:
   \   000000   52740A00     DB "Rt\012"

   \                                 In  segment XDATA_ROM_C, align 1
   \                     `?<Constant "Uk\\n">`:
   \   000000   556B0A00     DB "Uk\012"

   \                                 In  segment XDATA_ROM_C, align 1
   \                     `?<Constant "Temp: ">`:
   \   000000   54656D70     DB "Temp: "
   \            3A2000  

   \                                 In  segment XDATA_ROM_C, align 1
   \                     `?<Constant "Vol: ">`:
   \   000000   566F6C3A     DB "Vol: "
   \            2000    

   \                                 In  segment XDATA_ROM_C, align 1
   \                     `?<Constant "UkInfo\\n">`:
   \   000000   556B496E     DB "UkInfo\012"
   \            666F0A00
    518          
    519          /*********************************************************************
    520          *********************************************************************/

   Maximum stack usage in bytes:

     Function                       ISTACK PSTACK XSTACK
     --------                       ------ ------ ------
     SampleApp_HandleKeys               0      0     22
       -> SampleApp_SendFlashMessage
                                        0      0     20
       -> aps_FindGroup                 0      0     20
       -> aps_RemoveGroup               0      0     20
       -> aps_AddGroup                  0      0     20
     SampleApp_Init                     0      0     14
       -> MT_UartInit                   0      0     22
       -> MT_UartRegisterTaskID         0      0     22
       -> HalUARTWrite                  0      0     22
       -> afRegister                    0      0     22
       -> RegisterForKeys               0      0     22
       -> osal_memcpy                   0      0     28
       -> aps_AddGroup                  0      0     22
     SampleApp_MessageMSGCB             2      0     38
       -> HalUARTWrite                  0      0     52
       -> HalUARTWrite                  0      0     52
       -> HalUARTWrite                  0      0     52
       -> HalUARTWrite                  0      0     52
       -> HalUARTWrite                  0      0     52
       -> HalUARTWrite                  0      0     52
       -> HalUARTWrite                  0      0     52
       -> HalUARTWrite                  0      0     52
       -> HalUARTWrite                  0      0     52
       -> HalUARTWrite                  0      0     52
       -> HalUARTWrite                  0      0     52
       -> HalUARTWrite                  0      0     52
       -> HalUARTWrite                  0      0     52
       -> HalUARTWrite                  0      0     52
       -> HalUARTWrite                  0      0     52
       -> HalUARTWrite                  0      0     52
       -> HalUARTWrite                  0      0     52
       -> HalLedBlink                   0      0     52
     SampleApp_ProcessEvent             0      0     12
       -> osal_msg_receive              0      0     24
       -> HalUARTWrite                  0      0     24
       -> osal_msg_deallocate           0      0     24
       -> osal_msg_receive              0      0     24
       -> SampleApp_HandleKeys          0      0     24
       -> SampleApp_MessageMSGCB        0      0     24
       -> osal_start_timerEx            0      0     24
       -> osal_rand                     0      0     24
       -> osal_start_timerEx            0      0     24
     SampleApp_SendFlashMessage         1      0     32
       -> AF_DataRequest                0      0     44
     SampleApp_SendPeriodicMessage      0      0     19
       -> AF_DataRequest                0      0     38


   Segment part sizes:

     Function/Label                        Bytes
     --------------                        -----
     SampleApp_ClusterList                    6
     SampleApp_SimpleDesc                    12
     SampleApp_epDesc                         6
     SampleApp_TaskID                         1
     SampleApp_NwkState                       1
     SampleApp_TransID                        1
     SampleApp_Periodic_DstAddr              12
     SampleApp_Flash_DstAddr                 12
     SampleApp_Group                         18
     SampleAppPeriodicCounter                 1
     SampleAppFlashCounter                    1
     SampleApp_Init                         172
     SampleApp_ProcessEvent                 196
     SampleApp_HandleKeys                    62
     ??Subroutine7_0                          5
     SampleApp_MessageMSGCB                 383
     ?Subroutine4                             5
     ?Subroutine5                             8
     ?Subroutine3                             4
     ?Subroutine6                            11
     ?Subroutine2                             8
     ?Subroutine1                            19
     ?Subroutine0                             3
     SampleApp_SendPeriodicMessage           68
     SampleApp_SendFlashMessage             115
     ??SampleApp_Init?relay                   6
     ??SampleApp_ProcessEvent?relay           6
     ??SampleApp_HandleKeys?relay             6
     ??SampleApp_MessageMSGCB?relay           6
     ??SampleApp_SendPeriodicMessage?relay    6
     ??SampleApp_SendFlashMessage?relay       6
     ?<Constant "In Cor Init\n">             13
     ?<Constant "Group 1">                    8
     ?<Constant "out\n">                      5
     ?<Constant "MsgCB\n">                    7
     ?<Constant "0124567889ABCDEF">          16
     ?<Constant "Point Msg\n">               11
     ?<Constant "\n">                         2
     ?<Constant "Ep\n">                       4
     ?<Constant "Rt\n">                       4
     ?<Constant "Uk\n">                       4
     ?<Constant "Temp: ">                     7
     ?<Constant "Vol: ">                      6
     ?<Constant "UkInfo\n">                   8

 
 1 059 bytes in segment BANKED_CODE
    36 bytes in segment BANK_RELAYS
   113 bytes in segment XDATA_ROM_C
    53 bytes in segment XDATA_Z
 
 1 095 bytes of CODE  memory
   113 bytes of CONST memory
    53 bytes of XDATA memory

Errors: none
Warnings: none
